BL51 BANKED LINKER/LOCATER V6.22                                                        02/03/2015  17:48:48  PAGE 1


BL51 BANKED LINKER/LOCATER V6.22, INVOKED BY:
D:\KEIL C51\C51\BIN\BL51.EXE .\ObjFile\Z8_STARTUP.obj, .\ObjFile\Main.obj, .\ObjFile\HardApiAsm.obj, .\ObjFile\IomFunc.o
>> bj, .\ObjFile\TbcFunc.obj, .\ObjFile\OtpFunc.obj, .\ObjFile\LcdFunc.obj, .\ObjFile\WdtFunc.obj, .\ObjFile\RngFunc.obj
>> , .\ObjFile\AdcFunc.obj, .\ObjFile\Sm3Func.obj, .\ObjFile\SecFunc.obj, .\ObjFile\ScuFunc.obj, .\ObjFile\UartFunc.obj,
>>  .\ObjFile\TimerFunc.obj, .\ObjFile\IsrFrame.obj, .\ObjFile\ScuFrame.obj, .\ObjFile\OtpFrame.obj, .\ObjFile\TbcFrame.
>> obj, .\ObjFile\LcdFrame.obj, .\ObjFile\WdtFrame.obj, .\ObjFile\RngFrame.obj, .\ObjFile\AdcFrame.obj, .\ObjFile\IomFra
>> me.obj, .\ObjFile\UartFrame.obj, .\ObjFile\TimerFrame.obj, .\ObjFile\Sm3Frame.obj, .\ObjFile\TokenApp.obj, .\ObjFile\
>> EwatchApp.obj, .\ObjFile\PUTCHAR.obj, .\ObjFile\CmdProc.obj, .\ObjFile\Debug.obj, .\ObjFile\Crc.obj TO .\ObjFile\Z8D1
>> 6R-2 PRINT (.\LstFile\Z8D16R-2.m51) RAMSIZE (256) DISABLEWARNING (16) CODE (0X0000-0XBFFF) XDATA (0X0000-0X0BFF)


MEMORY MODEL: LARGE WITH FLOATING POINT ARITHMETIC


INPUT MODULES INCLUDED:
  .\ObjFile\Z8_STARTUP.obj (?C_STARTUP)
  .\ObjFile\Main.obj (MAIN)
  .\ObjFile\HardApiAsm.obj (HARDAPIASM)
  .\ObjFile\IomFunc.obj (IOMFUNC)
  .\ObjFile\TbcFunc.obj (TBCFUNC)
  .\ObjFile\OtpFunc.obj (OTPFUNC)
  .\ObjFile\LcdFunc.obj (LCDFUNC)
  .\ObjFile\WdtFunc.obj (WDTFUNC)
  .\ObjFile\RngFunc.obj (RNGFUNC)
  .\ObjFile\AdcFunc.obj (ADCFUNC)
  .\ObjFile\Sm3Func.obj (SM3FUNC)
  .\ObjFile\SecFunc.obj (SECFUNC)
  .\ObjFile\ScuFunc.obj (SCUFUNC)
  .\ObjFile\UartFunc.obj (UARTFUNC)
  .\ObjFile\TimerFunc.obj (TIMERFUNC)
  .\ObjFile\IsrFrame.obj (ISRFRAME)
  .\ObjFile\ScuFrame.obj (SCUFRAME)
  .\ObjFile\OtpFrame.obj (OTPFRAME)
  .\ObjFile\TbcFrame.obj (TBCFRAME)
  .\ObjFile\LcdFrame.obj (LCDFRAME)
  .\ObjFile\WdtFrame.obj (WDTFRAME)
  .\ObjFile\RngFrame.obj (RNGFRAME)
  .\ObjFile\AdcFrame.obj (ADCFRAME)
  .\ObjFile\IomFrame.obj (IOMFRAME)
  .\ObjFile\UartFrame.obj (UARTFRAME)
  .\ObjFile\TimerFrame.obj (TIMERFRAME)
  .\ObjFile\Sm3Frame.obj (SM3FRAME)
  .\ObjFile\TokenApp.obj (TOKENAPP)
  .\ObjFile\EwatchApp.obj (EWATCHAPP)
  .\ObjFile\PUTCHAR.obj (PUTCHAR)
  .\ObjFile\CmdProc.obj (CMDPROC)
  .\ObjFile\Debug.obj (DEBUG)
  .\ObjFile\Crc.obj (CRC)
  D:\KEIL C51\C51\LIB\C51FPL.LIB (?C?FPADD)
  D:\KEIL C51\C51\LIB\C51FPL.LIB (?C?FPMUL)
  D:\KEIL C51\C51\LIB\C51FPL.LIB (?C?FPDIV)
  D:\KEIL C51\C51\LIB\C51FPL.LIB (?C?FCAST)
  D:\KEIL C51\C51\LIB\C51FPL.LIB (PRINTF)
  D:\KEIL C51\C51\LIB\C51FPL.LIB (?C?FPGETOPN)
  D:\KEIL C51\C51\LIB\C51FPL.LIB (?C?FPROUND)
  D:\KEIL C51\C51\LIB\C51FPL.LIB (?C?FPCONVERT)
  D:\KEIL C51\C51\LIB\C51FPL.LIB (?C?FTNPWR)
  D:\KEIL C51\C51\LIB\C51L.LIB (?C_INIT)
BL51 BANKED LINKER/LOCATER V6.22                                                      02/03/2015  17:48:48  PAGE 2


  D:\KEIL C51\C51\LIB\C51L.LIB (?C?COPY)
  D:\KEIL C51\C51\LIB\C51L.LIB (?C?CLDPTR)
  D:\KEIL C51\C51\LIB\C51L.LIB (?C?CLDOPTR)
  D:\KEIL C51\C51\LIB\C51L.LIB (?C?CSTPTR)
  D:\KEIL C51\C51\LIB\C51L.LIB (?C?IILDX)
  D:\KEIL C51\C51\LIB\C51L.LIB (?C?ILDIX)
  D:\KEIL C51\C51\LIB\C51L.LIB (?C?ULDIV)
  D:\KEIL C51\C51\LIB\C51L.LIB (?C?LNEG)
  D:\KEIL C51\C51\LIB\C51L.LIB (?C?LSHL)
  D:\KEIL C51\C51\LIB\C51L.LIB (?C?LLDIDATA0)
  D:\KEIL C51\C51\LIB\C51L.LIB (?C?LSTIDATA)
  D:\KEIL C51\C51\LIB\C51L.LIB (?C?LSTXDATA)
  D:\KEIL C51\C51\LIB\C51L.LIB (?C?PLDIXDATA)
  D:\KEIL C51\C51\LIB\C51L.LIB (?C?PSTXDATA)
  D:\KEIL C51\C51\LIB\C51L.LIB (?C?CCASE)
  D:\KEIL C51\C51\LIB\C51L.LIB (?C?ICALL)
  D:\KEIL C51\C51\LIB\C51L.LIB (STRNCMP)
  D:\KEIL C51\C51\LIB\C51L.LIB (?C?MEMCMP)
  D:\KEIL C51\C51\LIB\C51L.LIB (?C?MEMSET)


LINK MAP OF MODULE:  .\ObjFile\Z8D16R-2 (?C_STARTUP)


            TYPE    BASE      LENGTH    RELOCATION   SEGMENT NAME
            -----------------------------------------------------

            * * * * * * *   D A T A   M E M O R Y   * * * * * * *
            REG     0000H     0008H     ABSOLUTE     "REG BANK 0"
            DATA    0008H     000AH     UNIT         _DATA_GROUP_
            IDATA   0012H     0001H     UNIT         ?ID?MAIN
                    0013H     000DH                  *** GAP ***
            DATA    0020H     000AH     ABSOLUTE     
            BIT     002AH.0   0002H.2   UNIT         _BIT_GROUP_
                    002CH.2   0003H.6                *** GAP ***
            IDATA   0030H     0001H     ABSOLUTE     
            IDATA   0031H     0001H     ABSOLUTE     
            IDATA   0032H     0004H     ABSOLUTE     
            IDATA   0036H     0004H     ABSOLUTE     
            IDATA   003AH     0004H     ABSOLUTE     
            IDATA   003EH     0001H     ABSOLUTE     
            IDATA   003FH     0001H     ABSOLUTE     
            IDATA   0040H     0020H     ABSOLUTE     
            IDATA   0060H     0008H     ABSOLUTE     
            IDATA   0068H     0010H     ABSOLUTE     
            IDATA   0078H     0001H     UNIT         ?STACK

            * * * * * * *  X D A T A   M E M O R Y  * * * * * * *
            XDATA   0000H     0074H     UNIT         _XDATA_GROUP_
            XDATA   0074H     0042H     UNIT         ?XD?UARTFRAME
            XDATA   00B6H     0026H     UNIT         ?XD?TOKENAPP
            XDATA   00DCH     0013H     UNIT         ?XD?EWATCHAPP
            XDATA   00EFH     0006H     UNIT         ?XD?VSEC_TMPDETECT?SECFUNC
            XDATA   00F5H     0006H     UNIT         ?XD?IOMFRAME
            XDATA   00FBH     0005H     UNIT         ?XD?_VOTPREAD_CHIPSN?OTPFUNC
            XDATA   0100H     0004H     UNIT         ?XD?_FCALFREQDRIFT?TBCFUNC
            XDATA   0104H     0004H     UNIT         ?XD?SCUFRAME
BL51 BANKED LINKER/LOCATER V6.22                                                      02/03/2015  17:48:48  PAGE 3


            XDATA   0108H     0004H     UNIT         ?XD?TBCFRAME
            XDATA   010CH     0004H     UNIT         ?XD?VOTP_EWATCH?EWATCHAPP
            XDATA   0110H     0003H     UNIT         ?XD?VLCD_SET_ALL?LCDFUNC
            XDATA   0113H     0003H     UNIT         ?XD?_VUARTSENDDATA?UARTFUNC
            XDATA   0116H     0002H     UNIT         ?XD?TIMERFRAME
            XDATA   0118H     0001H     UNIT         ?XD?ISRFRAME
            XDATA   0119H     0001H     UNIT         ?XD?LCDFRAME
            XDATA   011AH     0001H     UNIT         ?XD?WDTFRAME
            XDATA   011BH     0001H     UNIT         ?XD?RNGFRAME
            XDATA   011CH     0001H     UNIT         ?XD?VKEYBOARDTEST?IOMFRAME
                    011DH     0663H                  *** GAP ***
            XDATA   0780H     0400H     ABSOLUTE     
            XDATA   0B80H     0020H     ABSOLUTE     
            XDATA   0BA0H     0040H     ABSOLUTE     

            * * * * * * *   C O D E   M E M O R Y   * * * * * * *
            CODE    0000H     0003H     ABSOLUTE     
            CODE    0003H     0003H     ABSOLUTE     
            CODE    0006H     0003H     UNIT         ?PR?_PUTCHAR?PUTCHAR
                    0009H     0002H                  *** GAP ***
            CODE    000BH     0003H     ABSOLUTE     
                    000EH     0005H                  *** GAP ***
            CODE    0013H     0003H     ABSOLUTE     
                    0016H     0005H                  *** GAP ***
            CODE    001BH     0003H     ABSOLUTE     
                    001EH     0005H                  *** GAP ***
            CODE    0023H     0003H     ABSOLUTE     
            CODE    0026H     0E51H     UNIT         ?PR?VTBCVERIFY?TBCFRAME
            CODE    0E77H     0D9FH     UNIT         ?PR?VTIMERVERIFY?TIMERFRAME
            CODE    1C16H     0D4EH     UNIT         ?PR?VBITRAMAREATEST?SCUFRAME
            CODE    2964H     09D3H     UNIT         ?PR?VSCUVERIFY?SCUFRAME
            CODE    3337H     0988H     UNIT         ?C?LIB_CODE
            CODE    3CBFH     0598H     UNIT         ?PR?VIOMVERIFY?IOMFRAME
            CODE    4257H     04FAH     UNIT         ?PR?VTOKEN_RUNMODE?TOKENAPP
            CODE    4751H     0483H     UNIT         ?PR?PRINTF?PRINTF
            CODE    4BD4H     039EH     UNIT         ?PR?VTOKEN_INPUTPIN?TOKENAPP
            CODE    4F72H     0399H     UNIT         ?PR?VTOKEN_UNLOCKPIN?TOKENAPP
            CODE    530BH     0385H     UNIT         ?PR?VTOKEN_SETPIN?TOKENAPP
            CODE    5690H     0364H     UNIT         ?CO?SCUFRAME
            CODE    59F4H     0312H     UNIT         ?PR?VTOKEN_ACTIVE?TOKENAPP
            CODE    5D06H     02EAH     UNIT         ?PR?VOTP_EWATCH?EWATCHAPP
            CODE    5FF0H     02C6H     UNIT         ?PR?VOTPVERIFY?OTPFRAME
            CODE    62B6H     0244H     UNIT         ?PR?VADCVERIFY?ADCFRAME
            CODE    64FAH     020BH     UNIT         ?PR?VTIMER_DISP?EWATCHAPP
            CODE    6705H     01F9H     UNIT         ?CO?TBCFRAME
            CODE    68FEH     01BEH     UNIT         ?CO?IOMFRAME
            CODE    6ABCH     019BH     UNIT         ?PR?VTOKEN_SEEDIMPORT?TOKENAPP
            CODE    6C57H     0154H     UNIT         ?CO?TIMERFRAME
            CODE    6DABH     014CH     UNIT         ?PR?UCGETKEYVALUE?IOMFRAME
            CODE    6EF7H     0144H     UNIT         ?PR?VSM3HASH?SM3FUNC
            CODE    703BH     0144H     UNIT         ?PR?_DYNPASSWORD_SM3?TOKENAPP
            CODE    717FH     0132H     UNIT         ?PR?VWDTVERIFY?WDTFRAME
            CODE    72B1H     0114H     UNIT         ?CO?ADCFRAME
            CODE    73C5H     00F0H     UNIT         ?PR?_MESSAGEEXPAND?TOKENAPP
            CODE    74B5H     00EDH     UNIT         ?CO?OTPFRAME
            CODE    75A2H     00E2H     UNIT         ?PR?VCMDHANDLE?CMDPROC
            CODE    7684H     00D4H     UNIT         ?PR?VLCDVERIFY?LCDFRAME
BL51 BANKED LINKER/LOCATER V6.22                                                      02/03/2015  17:48:48  PAGE 4


            CODE    7758H     00C6H     UNIT         ?CO?WDTFRAME
            CODE    781EH     00C3H     UNIT         ?PR?VTOKENAPP?TOKENAPP
            CODE    78E1H     00B6H     UNIT         ?PR?_VDELAY?DEBUG
            CODE    7997H     00B1H     UNIT         ?C_C51STARTUP
            CODE    7A48H     00ABH     UNIT         ?PR?VRNGVERIFY?RNGFRAME
            CODE    7AF3H     00AAH     UNIT         ?CO?LCDFRAME
            CODE    7B9DH     00A8H     UNIT         ?PR?VEX1_ISR?ISRFRAME
            CODE    7C45H     0096H     UNIT         ?PR?VPOWERONCHECK?MAIN
            CODE    7CDBH     0096H     UNIT         ?PR?_VLCD_STRING_DISPLAY?LCDFUNC
            CODE    7D71H     0093H     UNIT         ?PR?VSI_ISR?ISRFRAME
            CODE    7E04H     008FH     UNIT         ?PR?_VIOM_GPIOCONFIG?IOMFUNC
            CODE    7E93H     0088H     UNIT         ?PR?_U16CRCCOMPUTE?CRC
            CODE    7F1BH     0087H     UNIT         ?PR?_STRNCMP?STRNCMP
            CODE    7FA2H     007EH     UNIT         ?PR?VSEC_TMPDETECT?SECFUNC
            CODE    8020H     007BH     UNIT         ?CO?MAIN
            CODE    809BH     0077H     UNIT         ?PR?_VLCD_FLAG_DISPLAY?LCDFUNC
            CODE    8112H     0077H     UNIT         ?PR?_VLCD_FLAG_DISPLAY_FORISR?LCDFUNC
            CODE    8189H     0077H     UNIT         ?PR?VTF1_ISR?ISRFRAME
            CODE    8200H     0075H     UNIT         ?PR?VTF0_ISR?ISRFRAME
            CODE    8275H     0073H     UNIT         ?PR?VEX0_ISR?ISRFRAME
            CODE    82E8H     0071H     UNIT         ?CO?LCDFUNC
            CODE    8359H     006EH     UNIT         ?PR?_VTIMER2START?TIMERFUNC
            CODE    83C7H     006DH     UNIT         ?PR?VFLAG1S_DISPCLR?TOKENAPP
            CODE    8434H     006CH     UNIT         ?PR?_VTIMER1START?TIMERFUNC
            CODE    84A0H     006AH     UNIT         ?CO?TOKENAPP
            CODE    850AH     0069H     UNIT         ?CO?CMDPROC
            CODE    8573H     0068H     UNIT         ?PR?MAIN?MAIN
            CODE    85DBH     0065H     UNIT         ?PR?_VIOM_SETGPIOVAL?IOMFUNC
            CODE    8640H     005EH     UNIT         ?PR?VSYSINIT?MAIN
            CODE    869EH     005EH     UNIT         ?PR?_UCSYSCLKCHANGE?DEBUG
            CODE    86FCH     005DH     UNIT         ?PR?_VUARTSENDDATA?UARTFUNC
            CODE    8759H     005BH     UNIT         ?PR?ULGETTBCCOUNTVLAUE?TBCFUNC
            CODE    87B4H     005AH     UNIT         ?PR?_VLCD_BCD_DISPLAY?LCDFUNC
            CODE    880EH     0055H     UNIT         ?PR?_VOTPREAD?OTPFUNC
            CODE    8863H     0055H     UNIT         ?PR?_VTIMERCLKSEL?TIMERFUNC
            CODE    88B8H     0054H     UNIT         ?PR?_FCALFREQDRIFT?TBCFUNC
            CODE    890CH     0048H     UNIT         ?PR?_VOTPREAD_CHIPSN?OTPFUNC
            CODE    8954H     003DH     UNIT         ?C_INITSEG
            CODE    8991H     0038H     UNIT         ?PR?_VRNGDATA?RNGFUNC
            CODE    89C9H     0035H     UNIT         ?PR?_VTIMER_COUNTER_DISP?LCDFRAME
            CODE    89FEH     0035H     UNIT         ?PR?_VFLOAT_DISP?LCDFRAME
            CODE    8A33H     0034H     UNIT         ?PR?_UIOM_GETGPIOVAL?IOMFUNC
            CODE    8A67H     0030H     UNIT         ?PR?_VTBC_ADJ?TBCFUNC
            CODE    8A97H     0030H     UNIT         ?PR?_VLCD_BCD_CLEAR?LCDFUNC
            CODE    8AC7H     0030H     UNIT         ?PR?UIADC_GETDATA?ADCFUNC
            CODE    8AF7H     0030H     UNIT         ?PR?VTOKEN_INVALID?TOKENAPP
            CODE    8B27H     002EH     UNIT         ?PR?VLCD_SET_ALL?LCDFUNC
            CODE    8B55H     002DH     UNIT         ?PR?VLCD_CLEAR_ALL?LCDFUNC
            CODE    8B82H     002DH     UNIT         ?PR?VLCD_STRING_CLEAR?LCDFUNC
            CODE    8BAFH     002DH     UNIT         ?PR?_VUARTRECVDATA?UARTFUNC
            CODE    8BDCH     002BH     UNIT         ?CO?ISRFRAME
            CODE    8C07H     0029H     UNIT         ?CO?RNGFRAME
            CODE    8C30H     0027H     UNIT         ?PR?_VLCD_BCD_SHIFT?LCDFUNC
            CODE    8C57H     0025H     UNIT         ?PR?VUTC_TO_GTM8?EWATCHAPP
            CODE    8C7CH     0021H     UNIT         ?PR?_HARDAPIASM
            CODE    8C9DH     0021H     UNIT         ?PR?_VLCD_POINT_DISPLAY?LCDFUNC
            CODE    8CBEH     0021H     UNIT         ?PR?_VRNGSTARTINIT?RNGFUNC
BL51 BANKED LINKER/LOCATER V6.22                                                      02/03/2015  17:48:48  PAGE 5


            CODE    8CDFH     0020H     UNIT         ?PR?_VSEC_LIGHTDETECTEN?SECFUNC
            CODE    8CFFH     001FH     UNIT         ?PR?VSEC_FREQEXCEPDETECTEN?SECFUNC
            CODE    8D1EH     001EH     UNIT         ?PR?VKEYBOARDTEST?IOMFRAME
            CODE    8D3CH     001CH     UNIT         ?PR?_VLCDINIT?LCDFUNC
            CODE    8D58H     001AH     UNIT         ?PR?VKEBOARDINIT?IOMFRAME
            CODE    8D72H     0019H     UNIT         ?PR?_VDELAY200US?ADCFUNC
            CODE    8D8BH     0019H     UNIT         ?PR?_VADCINIT?ADCFUNC
            CODE    8DA4H     0019H     UNIT         ?PR?VCMDERR?CMDPROC
            CODE    8DBDH     0014H     UNIT         ?PR?UCUARTGETBYTE?UARTFUNC
            CODE    8DD1H     0014H     UNIT         ?PR?_VUARTPUTBYTE?UARTFUNC
            CODE    8DE5H     0014H     UNIT         ?PR?_UCENDIANCHANGE?CRC
            CODE    8DF9H     0013H     UNIT         ?PR?UCGETRNGBYTE?RNGFUNC
            CODE    8E0CH     0010H     UNIT         ?PR?VUARTINIT?UARTFUNC
            CODE    8E1CH     000FH     UNIT         ?PR?VLCD_FLAG_CLEAR?LCDFUNC
            CODE    8E2BH     000FH     UNIT         ?PR?VCLRWDTCOUNTER?WDTFUNC
            CODE    8E3AH     000EH     UNIT         ?PR?VTBCINIT?TBCFUNC
            CODE    8E48H     000DH     UNIT         ?PR?_VDELAY1MS?LCDFUNC
            CODE    8E55H     000DH     UNIT         ?PR?VADCCLOSE?ADCFUNC
            CODE    8E62H     000CH     UNIT         ?PR?_VWDTINIT?WDTFUNC
            CODE    8E6EH     000AH     UNIT         ?PR?VSECINTPROCESS?SECFUNC
            CODE    8E78H     0008H     UNIT         ?PR?_UCOTPBYTEREAD?OTPFUNC
            CODE    8E80H     0007H     UNIT         ?PR?VRNGCLOSE?RNGFUNC
            CODE    8E87H     0006H     UNIT         ?CO?EWATCHAPP



OVERLAY MAP OF MODULE:   .\ObjFile\Z8D16R-2 (?C_STARTUP)


SEGMENT                                          BIT_GROUP          DATA_GROUP          XDATA_GROUP
  +--> CALLED SEGMENT                         START    LENGTH     START    LENGTH     START    LENGTH
-----------------------------------------------------------------------------------------------------
?C_C51STARTUP                                 -----    -----      -----    -----      -----    -----
  +--> ?PR?MAIN?MAIN
  +--> ?C_INITSEG

?PR?MAIN?MAIN                                 -----    -----      -----    -----      0000H    0001H
  +--> ?PR?VSYSINIT?MAIN
  +--> ?CO?MAIN
  +--> ?PR?PRINTF?PRINTF
  +--> ?PR?VKEBOARDINIT?IOMFRAME
  +--> ?PR?UCGETKEYVALUE?IOMFRAME
  +--> ?PR?VTOKENAPP?TOKENAPP
  +--> ?PR?VCMDHANDLE?CMDPROC

?PR?VSYSINIT?MAIN                             -----    -----      -----    -----      -----    -----
  +--> ?PR?VUARTINIT?UARTFUNC
  +--> ?PR?_VIOM_GPIOCONFIG?IOMFUNC
  +--> ?PR?_VLCDINIT?LCDFUNC
  +--> ?PR?VLCD_FLAG_CLEAR?LCDFUNC
  +--> ?PR?VLCD_STRING_CLEAR?LCDFUNC
  +--> ?PR?_VLCD_FLAG_DISPLAY?LCDFUNC
  +--> ?CO?MAIN
  +--> ?PR?_VLCD_STRING_DISPLAY?LCDFUNC

?PR?_VLCDINIT?LCDFUNC                         -----    -----      -----    -----      -----    -----
  +--> ?PR?_VDELAY1MS?LCDFUNC
BL51 BANKED LINKER/LOCATER V6.22                                                      02/03/2015  17:48:48  PAGE 6



?PR?VLCD_FLAG_CLEAR?LCDFUNC                   -----    -----      -----    -----      -----    -----
  +--> ?PR?_VLCD_FLAG_DISPLAY?LCDFUNC

?PR?_VLCD_FLAG_DISPLAY?LCDFUNC                -----    -----      -----    -----      000EH    0001H
  +--> ?CO?LCDFUNC

?PR?VLCD_STRING_CLEAR?LCDFUNC                 -----    -----      -----    -----      000EH    0003H

?PR?_VLCD_STRING_DISPLAY?LCDFUNC              -----    -----      -----    -----      000EH    0007H
  +--> ?CO?LCDFUNC
  +--> ?PR?_VLCD_BCD_DISPLAY?LCDFUNC

?PR?_VLCD_BCD_DISPLAY?LCDFUNC                 -----    -----      -----    -----      0015H    0001H
  +--> ?CO?LCDFUNC

?PR?PRINTF?PRINTF                             002BH.1  0001H.1    000DH    0005H      003DH    0030H
  +--> ?PR?_PUTCHAR?PUTCHAR

?PR?_PUTCHAR?PUTCHAR                          -----    -----      -----    -----      -----    -----
  +--> ?PR?_VUARTPUTBYTE?UARTFUNC

?PR?UCGETKEYVALUE?IOMFRAME                    -----    -----      -----    -----      000EH    0001H
  +--> ?PR?_VTIMER1START?TIMERFUNC
  +--> ?CO?IOMFRAME
  +--> ?PR?VKEBOARDINIT?IOMFRAME

?PR?_VTIMER1START?TIMERFUNC                   -----    -----      -----    -----      006DH    0005H
  +--> ?PR?_VTIMERCLKSEL?TIMERFUNC

?PR?_VTIMERCLKSEL?TIMERFUNC                   -----    -----      -----    -----      0072H    0002H

?PR?VTOKENAPP?TOKENAPP                        -----    -----      -----    -----      -----    -----
  +--> ?PR?VUARTINIT?UARTFUNC
  +--> ?PR?_VIOM_GPIOCONFIG?IOMFUNC
  +--> ?PR?_VLCDINIT?LCDFUNC
  +--> ?PR?VLCD_FLAG_CLEAR?LCDFUNC
  +--> ?PR?VLCD_STRING_CLEAR?LCDFUNC
  +--> ?PR?_VLCD_FLAG_DISPLAY?LCDFUNC
  +--> ?CO?TOKENAPP
  +--> ?PR?_VLCD_STRING_DISPLAY?LCDFUNC
  +--> ?PR?VTOKEN_SEEDIMPORT?TOKENAPP
  +--> ?PR?VTOKEN_INPUTPIN?TOKENAPP
  +--> ?PR?VTOKEN_SETPIN?TOKENAPP
  +--> ?PR?VTOKEN_RUNMODE?TOKENAPP
  +--> ?PR?VTOKEN_UNLOCKPIN?TOKENAPP
  +--> ?PR?VTOKEN_ACTIVE?TOKENAPP
  +--> ?PR?VTOKEN_INVALID?TOKENAPP
  +--> ?PR?VUTC_TO_GTM8?EWATCHAPP

?PR?VTOKEN_SEEDIMPORT?TOKENAPP                -----    -----      -----    -----      -----    -----
  +--> ?CO?TOKENAPP
  +--> ?PR?_VLCD_STRING_DISPLAY?LCDFUNC
  +--> ?PR?UCGETKEYVALUE?IOMFRAME
  +--> ?PR?VLCD_STRING_CLEAR?LCDFUNC
  +--> ?PR?VTBCINIT?TBCFUNC
  +--> ?PR?_VUARTRECVDATA?UARTFUNC
BL51 BANKED LINKER/LOCATER V6.22                                                      02/03/2015  17:48:48  PAGE 7


  +--> ?PR?VFLAG1S_DISPCLR?TOKENAPP

?PR?VFLAG1S_DISPCLR?TOKENAPP                  -----    -----      -----    -----      -----    -----
  +--> ?PR?_VLCD_FLAG_DISPLAY_FORISR?LCDFUNC

?PR?_VLCD_FLAG_DISPLAY_FORISR?LCDFUNC         -----    -----      -----    -----      000EH    0001H
  +--> ?CO?LCDFUNC

?PR?VTOKEN_INPUTPIN?TOKENAPP                  -----    -----      -----    -----      0001H    0004H
  +--> ?PR?VLCD_FLAG_CLEAR?LCDFUNC
  +--> ?PR?VLCD_STRING_CLEAR?LCDFUNC
  +--> ?PR?_VLCD_FLAG_DISPLAY?LCDFUNC
  +--> ?PR?UCGETKEYVALUE?IOMFRAME
  +--> ?PR?_VLCD_STRING_DISPLAY?LCDFUNC
  +--> ?PR?_VLCD_BCD_CLEAR?LCDFUNC
  +--> ?CO?TOKENAPP
  +--> ?PR?VFLAG1S_DISPCLR?TOKENAPP

?PR?_VLCD_BCD_CLEAR?LCDFUNC                   -----    -----      -----    -----      000EH    0002H

?PR?VTOKEN_SETPIN?TOKENAPP                    -----    -----      -----    -----      0001H    000DH
  +--> ?PR?VLCD_FLAG_CLEAR?LCDFUNC
  +--> ?PR?VLCD_STRING_CLEAR?LCDFUNC
  +--> ?PR?_VLCD_FLAG_DISPLAY?LCDFUNC
  +--> ?PR?_VLCD_BCD_DISPLAY?LCDFUNC
  +--> ?PR?UCGETKEYVALUE?IOMFRAME
  +--> ?PR?_VLCD_STRING_DISPLAY?LCDFUNC
  +--> ?PR?_VLCD_BCD_CLEAR?LCDFUNC
  +--> ?CO?TOKENAPP
  +--> ?PR?_VDELAY1MS?LCDFUNC
  +--> ?PR?VFLAG1S_DISPCLR?TOKENAPP

?PR?VTOKEN_RUNMODE?TOKENAPP                   -----    -----      -----    -----      0001H    0005H
  +--> ?PR?VLCD_FLAG_CLEAR?LCDFUNC
  +--> ?PR?VLCD_STRING_CLEAR?LCDFUNC
  +--> ?PR?_VLCD_FLAG_DISPLAY?LCDFUNC
  +--> ?PR?UCGETKEYVALUE?IOMFRAME
  +--> ?PR?_VLCD_STRING_DISPLAY?LCDFUNC
  +--> ?PR?_VLCD_BCD_CLEAR?LCDFUNC
  +--> ?PR?_MESSAGEEXPAND?TOKENAPP
  +--> ?PR?_DYNPASSWORD_SM3?TOKENAPP
  +--> ?PR?VFLAG1S_DISPCLR?TOKENAPP

?PR?_MESSAGEEXPAND?TOKENAPP                   -----    -----      -----    -----      0006H    0003H

?PR?_DYNPASSWORD_SM3?TOKENAPP                 -----    -----      -----    -----      0006H    0005H
  +--> ?PR?VSM3HASH?SM3FUNC
  +--> ?CO?TOKENAPP
  +--> ?PR?PRINTF?PRINTF

?PR?VTOKEN_UNLOCKPIN?TOKENAPP                 -----    -----      -----    -----      0001H    0004H
  +--> ?PR?VLCD_FLAG_CLEAR?LCDFUNC
  +--> ?PR?VLCD_STRING_CLEAR?LCDFUNC
  +--> ?PR?_VLCD_FLAG_DISPLAY?LCDFUNC
  +--> ?PR?UCGETKEYVALUE?IOMFRAME
  +--> ?PR?_VLCD_STRING_DISPLAY?LCDFUNC
  +--> ?PR?_VLCD_BCD_CLEAR?LCDFUNC
BL51 BANKED LINKER/LOCATER V6.22                                                      02/03/2015  17:48:48  PAGE 8


  +--> ?PR?_STRNCMP?STRNCMP
  +--> ?CO?TOKENAPP
  +--> ?PR?VFLAG1S_DISPCLR?TOKENAPP

?PR?_STRNCMP?STRNCMP                          -----    -----      -----    -----      0005H    0008H

?PR?VTOKEN_ACTIVE?TOKENAPP                    -----    -----      -----    -----      0001H    000BH
  +--> ?CO?TOKENAPP
  +--> ?PR?VLCD_FLAG_CLEAR?LCDFUNC
  +--> ?PR?VLCD_STRING_CLEAR?LCDFUNC
  +--> ?PR?_VLCD_FLAG_DISPLAY?LCDFUNC
  +--> ?PR?UCGETKEYVALUE?IOMFRAME
  +--> ?PR?_VLCD_STRING_DISPLAY?LCDFUNC
  +--> ?PR?_VLCD_BCD_CLEAR?LCDFUNC
  +--> ?PR?VFLAG1S_DISPCLR?TOKENAPP

?PR?VTOKEN_INVALID?TOKENAPP                   -----    -----      -----    -----      -----    -----
  +--> ?PR?VLCD_FLAG_CLEAR?LCDFUNC
  +--> ?PR?VLCD_STRING_CLEAR?LCDFUNC
  +--> ?PR?_VLCD_FLAG_DISPLAY?LCDFUNC
  +--> ?CO?TOKENAPP
  +--> ?PR?_VLCD_STRING_DISPLAY?LCDFUNC

?PR?VUTC_TO_GTM8?EWATCHAPP                    -----    -----      -----    -----      -----    -----
  +--> ?PR?VLCD_CLEAR_ALL?LCDFUNC
  +--> ?PR?VTIMER_DISP?EWATCHAPP

?PR?VLCD_CLEAR_ALL?LCDFUNC                    -----    -----      -----    -----      0005H    0003H

?PR?VTIMER_DISP?EWATCHAPP                     -----    -----      -----    -----      -----    -----
  +--> ?CO?EWATCHAPP
  +--> ?PR?PRINTF?PRINTF
  +--> ?PR?_VLCD_STRING_DISPLAY?LCDFUNC

?PR?VCMDHANDLE?CMDPROC                        -----    -----      -----    -----      0001H    0003H
  +--> ?CO?CMDPROC
  +--> ?PR?PRINTF?PRINTF
  +--> ?PR?_VUARTRECVDATA?UARTFUNC

?CO?CMDPROC                                   -----    -----      -----    -----      -----    -----
  +--> ?PR?VSCUVERIFY?SCUFRAME
  +--> ?PR?VTBCVERIFY?TBCFRAME
  +--> ?PR?VLCDVERIFY?LCDFRAME
  +--> ?PR?VWDTVERIFY?WDTFRAME
  +--> ?PR?VRNGVERIFY?RNGFRAME
  +--> ?PR?VADCVERIFY?ADCFRAME
  +--> ?PR?VTIMERVERIFY?TIMERFRAME
  +--> ?PR?VIOMVERIFY?IOMFRAME
  +--> ?PR?VOTPVERIFY?OTPFRAME
  +--> ?PR?VBITRAMAREATEST?SCUFRAME
  +--> ?PR?VCMDERR?CMDPROC

?PR?VSCUVERIFY?SCUFRAME                       -----    -----      -----    -----      -----    -----
  +--> ?CO?SCUFRAME
  +--> ?PR?PRINTF?PRINTF
  +--> ?PR?_VDELAY?DEBUG
  +--> ?PR?VTBCINIT?TBCFUNC
BL51 BANKED LINKER/LOCATER V6.22                                                      02/03/2015  17:48:48  PAGE 9



?PR?VTBCVERIFY?TBCFRAME                       -----    -----      -----    -----      0004H    0004H
  +--> ?CO?TBCFRAME
  +--> ?PR?PRINTF?PRINTF
  +--> ?PR?_VDELAY?DEBUG
  +--> ?PR?VTBCINIT?TBCFUNC
  +--> ?PR?_VTBC_ADJ?TBCFUNC
  +--> ?PR?_UCSYSCLKCHANGE?DEBUG
  +--> ?PR?_VTIMER2START?TIMERFUNC

?PR?_VTIMER2START?TIMERFUNC                   -----    -----      -----    -----      000DH    0005H
  +--> ?PR?_VTIMERCLKSEL?TIMERFUNC

?PR?VLCDVERIFY?LCDFRAME                       -----    -----      -----    -----      0004H    0001H
  +--> ?CO?LCDFRAME
  +--> ?PR?PRINTF?PRINTF
  +--> ?PR?_VLCDINIT?LCDFUNC
  +--> ?PR?VLCD_CLEAR_ALL?LCDFUNC
  +--> ?PR?_VLCD_STRING_DISPLAY?LCDFUNC
  +--> ?PR?_VDELAY?DEBUG

?PR?VWDTVERIFY?WDTFRAME                       -----    -----      -----    -----      -----    -----
  +--> ?CO?WDTFRAME
  +--> ?PR?PRINTF?PRINTF
  +--> ?PR?_VWDTINIT?WDTFUNC
  +--> ?PR?VCLRWDTCOUNTER?WDTFUNC

?PR?VRNGVERIFY?RNGFRAME                       -----    -----      -----    -----      0004H    0003H
  +--> ?PR?_VRNGSTARTINIT?RNGFUNC
  +--> ?PR?_VRNGDATA?RNGFUNC
  +--> ?PR?VRNGCLOSE?RNGFUNC
  +--> ?CO?RNGFRAME
  +--> ?PR?PRINTF?PRINTF
  +--> ?PR?_VDELAY?DEBUG

?PR?_VRNGDATA?RNGFUNC                         -----    -----      -----    -----      0007H    0003H

?PR?VADCVERIFY?ADCFRAME                       -----    -----      -----    -----      0004H    0009H
  +--> ?CO?ADCFRAME
  +--> ?PR?PRINTF?PRINTF
  +--> ?PR?_VADCINIT?ADCFUNC
  +--> ?PR?UIADC_GETDATA?ADCFUNC
  +--> ?PR?VADCCLOSE?ADCFUNC

?PR?_VADCINIT?ADCFUNC                         -----    -----      -----    -----      -----    -----
  +--> ?PR?_VDELAY200US?ADCFUNC

?PR?UIADC_GETDATA?ADCFUNC                     -----    -----      -----    -----      -----    -----
  +--> ?PR?_VDELAY200US?ADCFUNC

?PR?VTIMERVERIFY?TIMERFRAME                   -----    -----      -----    -----      -----    -----
  +--> ?CO?TIMERFRAME
  +--> ?PR?PRINTF?PRINTF
  +--> ?PR?_VDELAY?DEBUG
  +--> ?PR?_VTIMER1START?TIMERFUNC
  +--> ?PR?_VTIMER2START?TIMERFUNC

BL51 BANKED LINKER/LOCATER V6.22                                                      02/03/2015  17:48:48  PAGE 10


?PR?VIOMVERIFY?IOMFRAME                       -----    -----      -----    -----      0004H    0001H
  +--> ?CO?IOMFRAME
  +--> ?PR?PRINTF?PRINTF
  +--> ?PR?VKEBOARDINIT?IOMFRAME
  +--> ?PR?UCGETKEYVALUE?IOMFRAME
  +--> ?PR?_VIOM_GPIOCONFIG?IOMFUNC
  +--> ?PR?_VIOM_SETGPIOVAL?IOMFUNC
  +--> ?PR?_VDELAY?DEBUG

?PR?VOTPVERIFY?OTPFRAME                       -----    -----      -----    -----      0004H    0009H
  +--> ?CO?OTPFRAME
  +--> ?PR?PRINTF?PRINTF
  +--> ?PR?_UCOTPBYTEREAD?OTPFUNC
  +--> ?PR?_VTIMER2START?TIMERFUNC
  +--> ?PR?_VOTPREAD?OTPFUNC
  +--> ?PR?_UCSYSCLKCHANGE?DEBUG
  +--> ?PR?_U16CRCCOMPUTE?CRC

?PR?_VOTPREAD?OTPFUNC                         -----    -----      -----    -----      000DH    0007H

?PR?_U16CRCCOMPUTE?CRC                        -----    -----      -----    -----      000DH    0006H

?PR?VBITRAMAREATEST?SCUFRAME                  -----    -----      -----    -----      0004H    0006H
  +--> ?CO?SCUFRAME
  +--> ?PR?PRINTF?PRINTF
  +--> ?PR?_VTIMER2START?TIMERFUNC

?PR?VCMDERR?CMDPROC                           -----    -----      -----    -----      -----    -----
  +--> ?PR?PRINTF?PRINTF

*** NEW ROOT ***************************************************

?PR?VEX0_ISR?ISRFRAME                         -----    -----      -----    -----      -----    -----
  +--> ?PR?_HARDAPIASM
  +--> ?PR?VCLRWDTCOUNTER?WDTFUNC
  +--> ?CO?ISRFRAME
  +--> ?PR?PRINTF?PRINTF

*** NEW ROOT ***************************************************

?PR?VTF0_ISR?ISRFRAME                         -----    -----      -----    -----      -----    -----
  +--> ?PR?_HARDAPIASM

*** NEW ROOT ***************************************************

?PR?VEX1_ISR?ISRFRAME                         -----    -----      -----    -----      -----    -----
  +--> ?PR?_HARDAPIASM
  +--> ?PR?_VTIMER1START?TIMERFUNC

*** NEW ROOT ***************************************************

?PR?VTF1_ISR?ISRFRAME                         -----    -----      -----    -----      -----    -----
  +--> ?PR?_HARDAPIASM

*** NEW ROOT ***************************************************

?PR?VSI_ISR?ISRFRAME                          -----    -----      -----    -----      -----    -----
BL51 BANKED LINKER/LOCATER V6.22                                                      02/03/2015  17:48:48  PAGE 11


  +--> ?PR?_HARDAPIASM



SYMBOL TABLE OF MODULE:  .\ObjFile\Z8D16R-2 (?C_STARTUP)

  VALUE           TYPE          NAME
  ----------------------------------

  -------         MODULE        ?C_STARTUP
  C:7997H         SEGMENT       ?C_C51STARTUP
  I:0078H         SEGMENT       ?STACK
  C:0000H         PUBLIC        ?C_STARTUP
  D:00E0H         SYMBOL        ACC
  D:00F0H         SYMBOL        B
  D:0083H         SYMBOL        DPH
  D:0082H         SYMBOL        DPL
  D:0086H         SYMBOL        DPS
  N:0000H         SYMBOL        IBPSTACK
  N:0100H         SYMBOL        IBPSTACKTOP
  N:0100H         SYMBOL        IDATALEN
  C:79AAH         SYMBOL        IDATALOOP
  D:00A8H         SYMBOL        IE
  C:79C2H         SYMBOL        NOTFIRSTPOWERON
  N:0000H         SYMBOL        PBPSTACK
  N:0000H         SYMBOL        PBPSTACKTOP
  N:0000H         SYMBOL        PDATALEN
  N:0000H         SYMBOL        PDATASTART
  N:0000H         SYMBOL        PPAGE
  N:0000H         SYMBOL        PPAGEENABLE
  D:00A0H         SYMBOL        PPAGE_SFR
  D:009CH         SYMBOL        SCUCTRL
  D:0081H         SYMBOL        SP
  C:7997H         SYMBOL        STARTUP1
  N:0000H         SYMBOL        USER_APP_OFF
  N:0000H         SYMBOL        XBPSTACK
  N:0000H         SYMBOL        XBPSTACKTOP
  N:0400H         SYMBOL        XDATALEN
  C:79B5H         SYMBOL        XDATALOOP
  N:0000H         SYMBOL        XDATASTART
  C:0000H         LINE#         100
  C:7997H         LINE#         109
  C:799AH         LINE#         110
  C:799BH         LINE#         111
  C:799DH         LINE#         113
  C:799FH         LINE#         114
  C:79A0H         LINE#         119
  C:79A2H         LINE#         120
  C:79A4H         LINE#         125
  C:79A7H         LINE#         128
  C:79A9H         LINE#         129
  C:79AAH         LINE#         131
  C:79ABH         LINE#         132
  C:79ADH         LINE#         136
  C:79B0H         LINE#         137
  C:79B2H         LINE#         141
  C:79B4H         LINE#         143
BL51 BANKED LINKER/LOCATER V6.22                                                      02/03/2015  17:48:48  PAGE 12


  C:79B5H         LINE#         144
  C:79B6H         LINE#         145
  C:79B7H         LINE#         146
  C:79B9H         LINE#         147
  C:79BBH         LINE#         150
  C:79BEH         LINE#         151
  C:79C0H         LINE#         152
  C:79C2H         LINE#         154
  C:79C5H         LINE#         156
  -------         ENDMOD        ?C_STARTUP

  -------         MODULE        MAIN
  C:0000H         SYMBOL        _ICE_DUMMY_
  D:00F9H         PUBLIC        SCULCDSWEN
  C:8573H         PUBLIC        Main
  D:0092H         PUBLIC        SCUPM
  D:0090H         PUBLIC        SCUOSCCTRL
  D:0095H         PUBLIC        SCUWT
  C:7C45H         PUBLIC        vPowerOnCheck
  D:0087H         PUBLIC        PCON
  D:00B3H         PUBLIC        TM0CON
  D:0091H         PUBLIC        SCUMCG
  C:8640H         PUBLIC        vSysInit
  I:0012H         PUBLIC        _FIRST_POWERON_FLAG_
  D:0093H         PUBLIC        SCUPMP
  -------         PROC          VPOWERONCHECK
  C:7C45H         LINE#         17
  C:7C45H         LINE#         18
  C:7C45H         LINE#         19
  C:7C4DH         LINE#         20
  C:7C4DH         LINE#         21
  C:7C5EH         LINE#         23
  C:7C64H         LINE#         24
  C:7C69H         LINE#         25
  C:7C69H         LINE#         26
  C:7C6CH         LINE#         27
  C:7C6FH         LINE#         28
  C:7C75H         LINE#         29
  C:7C7EH         LINE#         30
  C:7C7EH         LINE#         32
  C:7C84H         LINE#         33
  C:7C89H         LINE#         34
  C:7C89H         LINE#         35
  C:7C8CH         LINE#         36
  C:7C8FH         LINE#         37
  C:7C95H         LINE#         38
  C:7C9EH         LINE#         39
  C:7C9EH         LINE#         41
  C:7CA4H         LINE#         42
  C:7CB8H         LINE#         43
  C:7CB8H         LINE#         44
  C:7CBBH         LINE#         45
  C:7CBEH         LINE#         46
  C:7CC1H         LINE#         47
  C:7CC2H         LINE#         49
  C:7CC2H         LINE#         50
  C:7CC5H         LINE#         51
BL51 BANKED LINKER/LOCATER V6.22                                                      02/03/2015  17:48:48  PAGE 13


  C:7CC8H         LINE#         52
  C:7CC8H         LINE#         53
  C:7CC8H         LINE#         54
  C:7CC8H         LINE#         55
  C:7CCAH         LINE#         57
  C:7CCAH         LINE#         58
  C:7CD1H         LINE#         59
  C:7CDAH         LINE#         60
  C:7CDAH         LINE#         61
  -------         ENDPROC       VPOWERONCHECK
  -------         PROC          VSYSINIT
  C:8640H         LINE#         62
  C:8640H         LINE#         63
  C:8640H         LINE#         64
  C:8656H         LINE#         65
  C:8659H         LINE#         70
  C:8660H         LINE#         71
  C:8667H         LINE#         73
  C:8670H         LINE#         75
  C:8675H         LINE#         77
  C:8678H         LINE#         78
  C:867BH         LINE#         79
  C:8682H         LINE#         80
  C:8689H         LINE#         82
  C:8694H         LINE#         86
  C:869AH         LINE#         88
  C:869DH         LINE#         101
  -------         ENDPROC       VSYSINIT
  -------         PROC          MAIN
  -------         DO            
  X:0000H         SYMBOL        Key
  -------         ENDDO         
  C:8573H         LINE#         103
  C:8573H         LINE#         104
  C:8573H         LINE#         105
  C:8578H         LINE#         106
  C:857BH         LINE#         107
  C:859EH         LINE#         109
  C:85BCH         LINE#         112
  C:85BFH         LINE#         114
  C:85BFH         LINE#         115
  C:85BFH         LINE#         116
  C:85C7H         LINE#         118
  C:85CAH         LINE#         119
  C:85CAH         LINE#         120
  C:85CDH         LINE#         121
  C:85CFH         LINE#         122
  C:85D6H         LINE#         123
  C:85D6H         LINE#         124
  C:85D9H         LINE#         125
  C:85D9H         LINE#         128
  -------         ENDPROC       MAIN
  -------         ENDMOD        MAIN

  -------         MODULE        HARDAPIASM
  C:8C7CH         SEGMENT       ?PR?_HARDAPIASM
  C:8C8EH         PUBLIC        VLOADCURRENT
BL51 BANKED LINKER/LOCATER V6.22                                                      02/03/2015  17:48:48  PAGE 14


  C:8C7CH         PUBLIC        VSAVECURRENT
  D:0085H         SYMBOL        DPH2
  D:0084H         SYMBOL        DPL2
  D:0086H         SYMBOL        DPS
  C:8C7CH         LINE#         19
  C:8C7EH         LINE#         20
  C:8C80H         LINE#         22
  C:8C82H         LINE#         23
  C:8C84H         LINE#         24
  C:8C86H         LINE#         25
  C:8C89H         LINE#         27
  C:8C8BH         LINE#         28
  C:8C8DH         LINE#         30
  C:8C8EH         LINE#         34
  C:8C90H         LINE#         35
  C:8C92H         LINE#         37
  C:8C94H         LINE#         38
  C:8C96H         LINE#         39
  C:8C98H         LINE#         41
  C:8C9AH         LINE#         42
  C:8C9CH         LINE#         44
  -------         ENDMOD        HARDAPIASM

  -------         MODULE        IOMFUNC
  C:0000H         SYMBOL        _ICE_DUMMY_
  D:00C7H         PUBLIC        IOMP0DOUT
  D:00CFH         PUBLIC        IOMP1DOUT
  D:00C6H         PUBLIC        IOMP0DIN
  D:00CEH         PUBLIC        IOMP1DIN
  D:0091H         PUBLIC        SCUMCG
  D:00C1H         PUBLIC        IOMP0DIR
  D:00C9H         PUBLIC        IOMP1DIR
  C:8A33H         PUBLIC        _uIom_GetGpioVal
  C:85DBH         PUBLIC        _vIom_SetGpioVal
  C:7E04H         PUBLIC        _vIom_GpioConfig
  D:00C0H         PUBLIC        IOMCR
  -------         PROC          _VIOM_GPIOCONFIG
  D:0007H         SYMBOL        GPn
  D:0005H         SYMBOL        InOut
  C:7E04H         LINE#         33
  C:7E04H         LINE#         34
  C:7E04H         LINE#         35
  C:7E07H         LINE#         36
  C:7E12H         LINE#         37
  C:7E12H         LINE#         38
  C:7E12H         LINE#         39
  C:7E12H         LINE#         40
  C:7E15H         LINE#         41
  C:7E17H         LINE#         42
  C:7E17H         LINE#         43
  C:7E1AH         LINE#         44
  C:7E1AH         LINE#         45
  C:7E1AH         LINE#         46
  C:7E1AH         LINE#         47
  C:7E1AH         LINE#         48
  C:7E1AH         LINE#         49
  C:7E1AH         LINE#         50
BL51 BANKED LINKER/LOCATER V6.22                                                      02/03/2015  17:48:48  PAGE 15


  C:7E1AH         LINE#         51
  C:7E1AH         LINE#         52
  C:7E1AH         LINE#         53
  C:7E1AH         LINE#         54
  C:7E1AH         LINE#         55
  C:7E1AH         LINE#         56
  C:7E1AH         LINE#         58
  C:7E1AH         LINE#         59
  C:7E1DH         LINE#         60
  C:7E1DH         LINE#         61
  C:7E23H         LINE#         62
  C:7E23H         LINE#         63
  C:7E30H         LINE#         64
  C:7E31H         LINE#         65
  C:7E45H         LINE#         66
  C:7E45H         LINE#         67
  C:7E56H         LINE#         68
  C:7E56H         LINE#         69
  C:7E57H         LINE#         71
  C:7E57H         LINE#         72
  C:7E5DH         LINE#         73
  C:7E5DH         LINE#         74
  C:7E6BH         LINE#         75
  C:7E6CH         LINE#         76
  C:7E80H         LINE#         77
  C:7E80H         LINE#         78
  C:7E92H         LINE#         79
  C:7E92H         LINE#         80
  C:7E92H         LINE#         81
  -------         ENDPROC       _VIOM_GPIOCONFIG
  -------         PROC          _UIOM_GETGPIOVAL
  D:0007H         SYMBOL        GPn
  C:8A33H         LINE#         92
  C:8A33H         LINE#         93
  C:8A33H         LINE#         94
  C:8A36H         LINE#         95
  C:8A3CH         LINE#         96
  C:8A3CH         LINE#         97
  C:8A4BH         LINE#         98
  C:8A4BH         LINE#         99
  C:8A51H         LINE#         100
  C:8A51H         LINE#         101
  C:8A64H         LINE#         102
  C:8A64H         LINE#         104
  C:8A64H         LINE#         105
  C:8A66H         LINE#         106
  C:8A66H         LINE#         107
  -------         ENDPROC       _UIOM_GETGPIOVAL
  -------         PROC          _VIOM_SETGPIOVAL
  D:0007H         SYMBOL        GPn
  D:0005H         SYMBOL        Val
  C:85DBH         LINE#         118
  C:85DBH         LINE#         119
  C:85DBH         LINE#         120
  C:85DEH         LINE#         121
  C:85E4H         LINE#         122
  C:85E4H         LINE#         123
BL51 BANKED LINKER/LOCATER V6.22                                                      02/03/2015  17:48:48  PAGE 16


  C:85E7H         LINE#         124
  C:85E7H         LINE#         125
  C:85F4H         LINE#         126
  C:85F5H         LINE#         128
  C:85F5H         LINE#         129
  C:8603H         LINE#         130
  C:8603H         LINE#         131
  C:8604H         LINE#         132
  C:8618H         LINE#         133
  C:8618H         LINE#         134
  C:861BH         LINE#         135
  C:861BH         LINE#         136
  C:862CH         LINE#         137
  C:862DH         LINE#         139
  C:862DH         LINE#         140
  C:863FH         LINE#         141
  C:863FH         LINE#         142
  C:863FH         LINE#         143
  -------         ENDPROC       _VIOM_SETGPIOVAL
  -------         ENDMOD        IOMFUNC

  -------         MODULE        TBCFUNC
  C:0000H         SYMBOL        _ICE_DUMMY_
  C:8A67H         PUBLIC        _vTBC_ADJ
  C:88B8H         PUBLIC        _fCalFreqDrift
  B:00A8H.7       PUBLIC        EA
  D:00DEH         PUBLIC        TBCDR0
  D:00DDH         PUBLIC        TBCDR1
  D:00DCH         PUBLIC        TBCDR2
  D:00DBH         PUBLIC        TBCDR3
  C:8E3AH         PUBLIC        vTbcInit
  C:8759H         PUBLIC        ulGetTbcCountVlaue
  D:0091H         PUBLIC        SCUMCG
  B:00A8H.1       PUBLIC        ET0
  D:00DAH         PUBLIC        TBCSTART
  D:00D9H         PUBLIC        TBCADJH
  D:00D8H         PUBLIC        TBCADJL
  -------         PROC          VTBCINIT
  C:8E3AH         LINE#         34
  C:8E3AH         LINE#         35
  C:8E3AH         LINE#         36
  C:8E3DH         LINE#         37
  C:8E40H         LINE#         42
  C:8E43H         LINE#         44
  C:8E45H         LINE#         45
  C:8E47H         LINE#         48
  -------         ENDPROC       VTBCINIT
  -------         PROC          ULGETTBCCOUNTVLAUE
  C:8759H         LINE#         58
  C:8759H         LINE#         59
  C:8759H         LINE#         61
  C:87B3H         LINE#         62
  -------         ENDPROC       ULGETTBCCOUNTVLAUE
  -------         PROC          _VTBC_ADJ
  D:0004H         SYMBOL        ppm
  -------         DO            
  D:0006H         SYMBOL        AdjValue
BL51 BANKED LINKER/LOCATER V6.22                                                      02/03/2015  17:48:48  PAGE 17


  -------         ENDDO         
  C:8A67H         LINE#         72
  C:8A6BH         LINE#         73
  C:8A6BH         LINE#         75
  C:8A72H         LINE#         77
  C:8A76H         LINE#         78
  C:8A76H         LINE#         79
  C:8A7AH         LINE#         80
  C:8A80H         LINE#         81
  C:8A89H         LINE#         82
  C:8A8AH         LINE#         84
  C:8A8AH         LINE#         91
  C:8A8EH         LINE#         92
  C:8A96H         LINE#         93
  C:8A96H         LINE#         94
  -------         ENDPROC       _VTBC_ADJ
  -------         PROC          _FCALFREQDRIFT
  X:0100H         SYMBOL        Temp
  C:88B8H         LINE#         106
  C:88BEH         LINE#         107
  C:88BEH         LINE#         109
  C:890BH         LINE#         110
  -------         ENDPROC       _FCALFREQDRIFT
  -------         ENDMOD        TBCFUNC

  -------         MODULE        OTPFUNC
  C:0000H         SYMBOL        _ICE_DUMMY_
  C:8E78H         PUBLIC        _ucOtpByteRead
  C:880EH         PUBLIC        _vOtpRead
  C:890CH         PUBLIC        _vOtpRead_ChipSn
  -------         PROC          _UCOTPBYTEREAD
  D:0006H         SYMBOL        Addr
  -------         DO            
  D:0007H         SYMBOL        DataValue
  D:0082H         SYMBOL        pAddr
  -------         ENDDO         
  C:8E78H         LINE#         31
  C:8E78H         LINE#         32
  C:8E78H         LINE#         35
  C:8E7CH         LINE#         36
  C:8E7FH         LINE#         37
  C:8E7FH         LINE#         38
  -------         ENDPROC       _UCOTPBYTEREAD
  -------         PROC          _VOTPREAD
  D:0006H         SYMBOL        Addr
  X:000DH         SYMBOL        Len
  X:000FH         SYMBOL        DataBuf
  -------         DO            
  D:0006H         SYMBOL        i
  X:0012H         SYMBOL        pAddr
  -------         ENDDO         
  C:880EH         LINE#         51
  C:881FH         LINE#         52
  C:881FH         LINE#         55
  C:8825H         LINE#         56
  C:8835H         LINE#         57
  C:8835H         LINE#         58
BL51 BANKED LINKER/LOCATER V6.22                                                      02/03/2015  17:48:48  PAGE 18


  C:885BH         LINE#         59
  C:8862H         LINE#         60
  -------         ENDPROC       _VOTPREAD
  -------         PROC          _VOTPREAD_CHIPSN
  X:00FBH         SYMBOL        DataBuf
  -------         DO            
  D:0006H         SYMBOL        i
  X:00FEH         SYMBOL        pAddr
  -------         ENDDO         
  C:890CH         LINE#         74
  C:8917H         LINE#         75
  C:8917H         LINE#         78
  C:891FH         LINE#         79
  C:8922H         LINE#         80
  C:8922H         LINE#         81
  C:8948H         LINE#         82
  C:8953H         LINE#         83
  -------         ENDPROC       _VOTPREAD_CHIPSN
  -------         ENDMOD        OTPFUNC

  -------         MODULE        LCDFUNC
  C:0000H         SYMBOL        _ICE_DUMMY_
  C:833EH         PUBLIC        Num_Assic
  D:0090H         PUBLIC        SCUOSCCTRL
  C:8B27H         PUBLIC        vLcd_Set_All
  C:7CDBH         PUBLIC        _vLcd_String_Display
  C:8D3CH         PUBLIC        _vLcdInit
  C:809BH         PUBLIC        _vLcd_Flag_Display
  C:87B4H         PUBLIC        _vLcd_Bcd_Display
  C:8B82H         PUBLIC        vLcd_String_Clear
  C:82E8H         PUBLIC        Num
  C:8E1CH         PUBLIC        vLcd_Flag_Clear
  C:8C9DH         PUBLIC        _vLcd_Point_Display
  C:8A97H         PUBLIC        _vLcd_Bcd_Clear
  D:0091H         PUBLIC        SCUMCG
  C:8B55H         PUBLIC        vLcd_Clear_All
  C:8C30H         PUBLIC        _vLcd_Bcd_Shift
  C:8112H         PUBLIC        _vLcd_Flag_Display_ForIsr
  C:8E48H         PUBLIC        _vDelay1ms
  C:831EH         PUBLIC        Flag
  -------         PROC          _VDELAY1MS
  D:0007H         SYMBOL        Count
  C:8E48H         LINE#         41
  C:8E48H         LINE#         42
  C:8E48H         LINE#         43
  C:8E4EH         LINE#         44
  C:8E4EH         LINE#         45
  C:8E4FH         LINE#         46
  C:8E50H         LINE#         47
  C:8E51H         LINE#         48
  C:8E52H         LINE#         49
  C:8E54H         LINE#         51
  -------         ENDPROC       _VDELAY1MS
  -------         PROC          _VLCDINIT
  D:0007H         SYMBOL        BIAS
  D:0005H         SYMBOL        DUTY
  D:0003H         SYMBOL        FRM
BL51 BANKED LINKER/LOCATER V6.22                                                      02/03/2015  17:48:48  PAGE 19


  C:8D3CH         LINE#         53
  C:8D3CH         LINE#         54
  C:8D3CH         LINE#         55
  C:8D3FH         LINE#         57
  C:8D46H         LINE#         58
  C:8D49H         LINE#         59
  C:8D4CH         LINE#         60
  C:8D4FH         LINE#         62
  C:8D53H         LINE#         65
  -------         ENDPROC       _VLCDINIT
  -------         PROC          VLCD_SET_ALL
  -------         DO            
  D:0007H         SYMBOL        i
  X:0110H         SYMBOL        pLcdDispReg
  -------         ENDDO         
  C:8B27H         LINE#         102
  C:8B27H         LINE#         103
  C:8B27H         LINE#         104
  C:8B29H         LINE#         105
  C:8B37H         LINE#         106
  C:8B3DH         LINE#         107
  C:8B3DH         LINE#         108
  C:8B52H         LINE#         110
  C:8B54H         LINE#         111
  -------         ENDPROC       VLCD_SET_ALL
  -------         PROC          VLCD_CLEAR_ALL
  -------         DO            
  D:0007H         SYMBOL        i
  X:0005H         SYMBOL        pLcdDispReg
  -------         ENDDO         
  C:8B55H         LINE#         133
  C:8B55H         LINE#         134
  C:8B55H         LINE#         135
  C:8B57H         LINE#         136
  C:8B65H         LINE#         137
  C:8B6BH         LINE#         138
  C:8B6BH         LINE#         139
  C:8B7FH         LINE#         140
  C:8B81H         LINE#         141
  -------         ENDPROC       VLCD_CLEAR_ALL
  -------         PROC          VLCD_STRING_CLEAR
  -------         DO            
  D:0007H         SYMBOL        i
  X:000EH         SYMBOL        pLcdDispReg
  -------         ENDDO         
  C:8B82H         LINE#         143
  C:8B82H         LINE#         144
  C:8B82H         LINE#         145
  C:8B84H         LINE#         146
  C:8B92H         LINE#         147
  C:8B98H         LINE#         148
  C:8B98H         LINE#         149
  C:8BACH         LINE#         150
  C:8BAEH         LINE#         151
  -------         ENDPROC       VLCD_STRING_CLEAR
  -------         PROC          _VLCD_BCD_SHIFT
  D:0007H         SYMBOL        index
BL51 BANKED LINKER/LOCATER V6.22                                                      02/03/2015  17:48:48  PAGE 20


  -------         DO            
  D:0004H         SYMBOL        pLcdDispReg
  -------         ENDDO         
  C:8C30H         LINE#         184
  C:8C30H         LINE#         185
  C:8C30H         LINE#         187
  C:8C34H         LINE#         188
  C:8C3AH         LINE#         189
  C:8C3AH         LINE#         190
  C:8C56H         LINE#         191
  C:8C56H         LINE#         192
  -------         ENDPROC       _VLCD_BCD_SHIFT
  -------         PROC          _VLCD_BCD_CLEAR
  D:0005H         SYMBOL        index
  -------         DO            
  X:000EH         SYMBOL        pLcdDispReg
  -------         ENDDO         
  C:8A97H         LINE#         214
  C:8A99H         LINE#         215
  C:8A99H         LINE#         217
  C:8AA3H         LINE#         218
  C:8AA9H         LINE#         219
  C:8AA9H         LINE#         220
  C:8AC1H         LINE#         221
  C:8AC6H         LINE#         222
  C:8AC6H         LINE#         223
  -------         ENDPROC       _VLCD_BCD_CLEAR
  -------         PROC          _VLCD_BCD_DISPLAY
  D:0001H         SYMBOL        index
  X:0015H         SYMBOL        BCD
  -------         DO            
  D:0004H         SYMBOL        pLcdDispReg
  -------         ENDDO         
  C:87B4H         LINE#         249
  C:87BBH         LINE#         250
  C:87BBH         LINE#         252
  C:87BFH         LINE#         253
  C:87C5H         LINE#         254
  C:87C5H         LINE#         255
  C:87E8H         LINE#         256
  C:880DH         LINE#         258
  C:880DH         LINE#         259
  -------         ENDPROC       _VLCD_BCD_DISPLAY
  -------         PROC          _VLCD_POINT_DISPLAY
  D:0007H         SYMBOL        index
  -------         DO            
  D:0004H         SYMBOL        pLcdDispReg
  -------         ENDDO         
  C:8C9DH         LINE#         260
  C:8C9DH         LINE#         261
  C:8C9DH         LINE#         263
  C:8CA1H         LINE#         264
  C:8CA7H         LINE#         265
  C:8CA7H         LINE#         266
  C:8CBDH         LINE#         268
  C:8CBDH         LINE#         269
  -------         ENDPROC       _VLCD_POINT_DISPLAY
BL51 BANKED LINKER/LOCATER V6.22                                                      02/03/2015  17:48:48  PAGE 21


  -------         PROC          _VLCD_STRING_DISPLAY
  X:000EH         SYMBOL        cString
  X:0011H         SYMBOL        cLen
  -------         DO            
  X:0012H         SYMBOL        i
  X:0013H         SYMBOL        j
  X:0014H         SYMBOL        k
  -------         ENDDO         
  C:7CDBH         LINE#         323
  C:7CE9H         LINE#         324
  C:7CE9H         LINE#         325
  C:7CEEH         LINE#         327
  C:7CFCH         LINE#         329
  C:7D0CH         LINE#         330
  C:7D0CH         LINE#         331
  C:7D19H         LINE#         332
  C:7D19H         LINE#         333
  C:7D3AH         LINE#         334
  C:7D3AH         LINE#         335
  C:7D4AH         LINE#         337
  C:7D4AH         LINE#         338
  C:7D4AH         LINE#         339
  C:7D52H         LINE#         340
  C:7D5AH         LINE#         342
  C:7D70H         LINE#         343
  -------         ENDPROC       _VLCD_STRING_DISPLAY
  -------         PROC          _VLCD_FLAG_DISPLAY
  X:000EH         SYMBOL        index
  D:0005H         SYMBOL        bOpen
  -------         DO            
  D:0002H         SYMBOL        pLcdDispReg
  -------         ENDDO         
  C:809BH         LINE#         356
  C:80A0H         LINE#         357
  C:80A0H         LINE#         359
  C:80A4H         LINE#         361
  C:80A9H         LINE#         362
  C:80A9H         LINE#         363
  C:80ACH         LINE#         364
  C:80ACH         LINE#         365
  C:80DAH         LINE#         366
  C:80DCH         LINE#         368
  C:80DCH         LINE#         369
  C:8111H         LINE#         370
  C:8111H         LINE#         371
  C:8111H         LINE#         372
  -------         ENDPROC       _VLCD_FLAG_DISPLAY
  -------         PROC          _VLCD_FLAG_DISPLAY_FORISR
  X:000EH         SYMBOL        index
  D:0005H         SYMBOL        bOpen
  -------         DO            
  D:0002H         SYMBOL        pLcdDispReg
  -------         ENDDO         
  C:8112H         LINE#         373
  C:8117H         LINE#         374
  C:8117H         LINE#         376
  C:811BH         LINE#         378
BL51 BANKED LINKER/LOCATER V6.22                                                      02/03/2015  17:48:48  PAGE 22


  C:8120H         LINE#         379
  C:8120H         LINE#         380
  C:8123H         LINE#         381
  C:8123H         LINE#         382
  C:8151H         LINE#         383
  C:8153H         LINE#         385
  C:8153H         LINE#         386
  C:8188H         LINE#         387
  C:8188H         LINE#         388
  C:8188H         LINE#         389
  -------         ENDPROC       _VLCD_FLAG_DISPLAY_FORISR
  -------         PROC          VLCD_FLAG_CLEAR
  -------         DO            
  D:0004H         SYMBOL        i
  -------         ENDDO         
  C:8E1CH         LINE#         435
  C:8E1CH         LINE#         436
  C:8E1CH         LINE#         437
  C:8E1EH         LINE#         438
  C:8E1EH         LINE#         439
  C:8E25H         LINE#         440
  C:8E2AH         LINE#         441
  -------         ENDPROC       VLCD_FLAG_CLEAR
  -------         ENDMOD        LCDFUNC

  -------         MODULE        WDTFUNC
  C:0000H         SYMBOL        _ICE_DUMMY_
  C:8E2BH         PUBLIC        vClrWdtCounter
  C:8E62H         PUBLIC        _vWdtInit
  D:0091H         PUBLIC        SCUMCG
  D:00E5H         PUBLIC        WDTMOD
  D:00E4H         PUBLIC        WDTCON
  -------         PROC          _VWDTINIT
  D:0007H         SYMBOL        InitTimer
  C:8E62H         LINE#         32
  C:8E62H         LINE#         33
  C:8E62H         LINE#         34
  C:8E65H         LINE#         35
  C:8E68H         LINE#         36
  C:8E6BH         LINE#         37
  C:8E6DH         LINE#         38
  -------         ENDPROC       _VWDTINIT
  -------         PROC          VCLRWDTCOUNTER
  C:8E2BH         LINE#         49
  C:8E2BH         LINE#         50
  C:8E2BH         LINE#         51
  C:8E2BH         LINE#         52
  C:8E2EH         LINE#         53
  C:8E33H         LINE#         55
  C:8E36H         LINE#         56
  C:8E39H         LINE#         57
  -------         ENDPROC       VCLRWDTCOUNTER
  -------         ENDMOD        WDTFUNC

  -------         MODULE        RNGFUNC
  C:0000H         SYMBOL        _ICE_DUMMY_
  D:00EFH         PUBLIC        RNGDATA
BL51 BANKED LINKER/LOCATER V6.22                                                      02/03/2015  17:48:48  PAGE 23


  D:0090H         PUBLIC        SCUOSCCTRL
  D:00EDH         PUBLIC        RNGMODE
  D:009DH         PUBLIC        SCURNGC
  C:8E80H         PUBLIC        vRngClose
  C:8991H         PUBLIC        _vRngData
  C:8DF9H         PUBLIC        ucGetRngByte
  D:0091H         PUBLIC        SCUMCG
  C:8CBEH         PUBLIC        _vRngStartInit
  D:00EEH         PUBLIC        RNGINT
  D:00ECH         PUBLIC        RNGSTART
  -------         PROC          _VRNGSTARTINIT
  D:0007H         SYMBOL        IPMODE
  D:0005H         SYMBOL        IPCLK
  C:8CBEH         LINE#         32
  C:8CBEH         LINE#         33
  C:8CBEH         LINE#         34
  C:8CC1H         LINE#         35
  C:8CC8H         LINE#         37
  C:8CCBH         LINE#         38
  C:8CCEH         LINE#         40
  C:8CD1H         LINE#         42
  C:8CD4H         LINE#         43
  C:8CD9H         LINE#         45
  C:8CDBH         LINE#         46
  C:8CDEH         LINE#         48
  -------         ENDPROC       _VRNGSTARTINIT
  -------         PROC          UCGETRNGBYTE
  C:8DF9H         LINE#         58
  C:8DF9H         LINE#         59
  C:8DF9H         LINE#         60
  C:8DFCH         LINE#         61
  C:8E01H         LINE#         62
  C:8E06H         LINE#         63
  C:8E06H         LINE#         64
  C:8E09H         LINE#         65
  C:8E09H         LINE#         66
  C:8E0BH         LINE#         67
  -------         ENDPROC       UCGETRNGBYTE
  -------         PROC          _VRNGDATA
  X:0007H         SYMBOL        OutData
  D:0004H         SYMBOL        Len
  C:8991H         LINE#         78
  C:899CH         LINE#         79
  C:899CH         LINE#         82
  C:89A6H         LINE#         83
  C:89A6H         LINE#         84
  C:89A9H         LINE#         85
  C:89AEH         LINE#         86
  C:89B1H         LINE#         87
  C:89C6H         LINE#         88
  C:89C8H         LINE#         90
  -------         ENDPROC       _VRNGDATA
  -------         PROC          VRNGCLOSE
  C:8E80H         LINE#         100
  C:8E80H         LINE#         101
  C:8E80H         LINE#         103
  C:8E83H         LINE#         104
BL51 BANKED LINKER/LOCATER V6.22                                                      02/03/2015  17:48:48  PAGE 24


  C:8E86H         LINE#         105
  -------         ENDPROC       VRNGCLOSE
  -------         ENDMOD        RNGFUNC

  -------         MODULE        ADCFUNC
  C:0000H         SYMBOL        _ICE_DUMMY_
  C:8D8BH         PUBLIC        _vAdcInit
  D:0091H         PUBLIC        SCUMCG
  C:8D7EH         SYMBOL        _vDelay200Us
  C:8AC7H         PUBLIC        uiAdc_GetData
  C:8E55H         PUBLIC        vAdcClose
  -------         PROC          L?0010
  -------         ENDPROC       L?0010
  -------         PROC          _VDELAY200US
  D:0007H         SYMBOL        Tcount
  C:8D7EH         LINE#         33
  C:8D7EH         LINE#         34
  C:8D7EH         LINE#         35
  C:8D7EH         LINE#         36
  C:8D7FH         LINE#         37
  C:8D80H         LINE#         38
  C:8D81H         LINE#         39
  C:8D82H         LINE#         40
  C:8D83H         LINE#         41
  C:8D84H         LINE#         42
  C:8D8AH         LINE#         43
  -------         ENDPROC       _VDELAY200US
  -------         PROC          _VADCINIT
  D:0007H         SYMBOL        CH
  C:8D8BH         LINE#         44
  C:8D8BH         LINE#         45
  C:8D8BH         LINE#         47
  C:8D8EH         LINE#         49
  C:8D95H         LINE#         51
  C:8D98H         LINE#         52
  C:8D9BH         LINE#         54
  C:8D9FH         LINE#         56
  -------         ENDPROC       _VADCINIT
  -------         PROC          UIADC_GETDATA
  C:8AC7H         LINE#         79
  C:8AC7H         LINE#         80
  C:8AC7H         LINE#         81
  C:8ACEH         LINE#         84
  C:8ACEH         LINE#         85
  C:8ACEH         LINE#         86
  C:8AD1H         LINE#         87
  C:8AD1H         LINE#         88
  C:8AD1H         LINE#         89
  C:8AD4H         LINE#         91
  C:8ADBH         LINE#         92
  C:8AE1H         LINE#         93
  C:8AE8H         LINE#         94
  C:8AF6H         LINE#         95
  -------         ENDPROC       UIADC_GETDATA
  -------         PROC          VADCCLOSE
  C:8E55H         LINE#         105
  C:8E55H         LINE#         106
BL51 BANKED LINKER/LOCATER V6.22                                                      02/03/2015  17:48:48  PAGE 25


  C:8E55H         LINE#         107
  C:8E5CH         LINE#         108
  C:8E61H         LINE#         110
  -------         ENDPROC       VADCCLOSE
  -------         ENDMOD        ADCFUNC

  -------         MODULE        SM3FUNC
  C:0000H         SYMBOL        _ICE_DUMMY_
  D:00F4H         PUBLIC        SM3CON
  D:00F5H         PUBLIC        SM3INT
  D:0091H         PUBLIC        SCUMCG
  C:6EF7H         PUBLIC        vSm3Hash
  -------         PROC          VSM3HASH
  C:6EF7H         LINE#         19
  C:6EF7H         LINE#         20
  C:6EF7H         LINE#         21
  C:6EFAH         LINE#         24
  C:6F00H         LINE#         25
  C:6F04H         LINE#         26
  C:6F08H         LINE#         27
  C:6F0CH         LINE#         28
  C:6F10H         LINE#         29
  C:6F14H         LINE#         30
  C:6F18H         LINE#         31
  C:6F1CH         LINE#         33
  C:6F20H         LINE#         34
  C:6F24H         LINE#         35
  C:6F28H         LINE#         36
  C:6F2CH         LINE#         37
  C:6F30H         LINE#         38
  C:6F34H         LINE#         39
  C:6F38H         LINE#         40
  C:6F3BH         LINE#         42
  C:6F3FH         LINE#         43
  C:6F43H         LINE#         44
  C:6F47H         LINE#         45
  C:6F4BH         LINE#         46
  C:6F4FH         LINE#         47
  C:6F53H         LINE#         48
  C:6F57H         LINE#         49
  C:6F5BH         LINE#         51
  C:6F5FH         LINE#         52
  C:6F63H         LINE#         53
  C:6F67H         LINE#         54
  C:6F6BH         LINE#         55
  C:6F6FH         LINE#         56
  C:6F73H         LINE#         57
  C:6F77H         LINE#         58
  C:6F7BH         LINE#         61
  C:6F81H         LINE#         62
  C:6F85H         LINE#         63
  C:6F89H         LINE#         64
  C:6F8DH         LINE#         65
  C:6F91H         LINE#         66
  C:6F95H         LINE#         67
  C:6F99H         LINE#         68
  C:6F9DH         LINE#         72
BL51 BANKED LINKER/LOCATER V6.22                                                      02/03/2015  17:48:48  PAGE 26


  C:6FA0H         LINE#         73
  C:6FA8H         LINE#         74
  C:6FA9H         LINE#         75
  C:6FAAH         LINE#         76
  C:6FABH         LINE#         79
  C:6FB1H         LINE#         80
  C:6FB5H         LINE#         81
  C:6FB9H         LINE#         82
  C:6FBDH         LINE#         83
  C:6FC1H         LINE#         84
  C:6FC5H         LINE#         85
  C:6FC9H         LINE#         86
  C:6FCDH         LINE#         88
  C:6FD1H         LINE#         89
  C:6FD5H         LINE#         90
  C:6FD9H         LINE#         91
  C:6FDDH         LINE#         92
  C:6FE1H         LINE#         93
  C:6FE5H         LINE#         94
  C:6FE9H         LINE#         95
  C:6FECH         LINE#         97
  C:6FF0H         LINE#         98
  C:6FF4H         LINE#         99
  C:6FF8H         LINE#         100
  C:6FFCH         LINE#         101
  C:7000H         LINE#         102
  C:7004H         LINE#         103
  C:7008H         LINE#         104
  C:700CH         LINE#         106
  C:7010H         LINE#         107
  C:7014H         LINE#         108
  C:7018H         LINE#         109
  C:701CH         LINE#         110
  C:7020H         LINE#         111
  C:7024H         LINE#         112
  C:7028H         LINE#         113
  C:702CH         LINE#         115
  C:702FH         LINE#         116
  C:7037H         LINE#         117
  C:7038H         LINE#         118
  C:7039H         LINE#         119
  C:703AH         LINE#         122
  -------         ENDPROC       VSM3HASH
  -------         ENDMOD        SM3FUNC

  -------         MODULE        SECFUNC
  C:0000H         SYMBOL        _ICE_DUMMY_
  C:8CDFH         PUBLIC        _vSec_LightDetectEn
  C:7FA2H         PUBLIC        vSec_TmpDetect
  D:0090H         PUBLIC        SCUOSCCTRL
  C:8CFFH         PUBLIC        vSec_FreqExcepDetectEn
  C:8E6EH         PUBLIC        vSecIntProcess
  D:0099H         PUBLIC        SCUIE1
  D:009BH         PUBLIC        SCUIS1
  D:0091H         PUBLIC        SCUMCG
  -------         PROC          VSEC_FREQEXCEPDETECTEN
  C:8CFFH         LINE#         33
BL51 BANKED LINKER/LOCATER V6.22                                                      02/03/2015  17:48:48  PAGE 27


  C:8CFFH         LINE#         34
  C:8CFFH         LINE#         35
  C:8D02H         LINE#         36
  C:8D05H         LINE#         37
  C:8D0CH         LINE#         39
  C:8D0FH         LINE#         40
  C:8D16H         LINE#         42
  C:8D1DH         LINE#         43
  -------         ENDPROC       VSEC_FREQEXCEPDETECTEN
  -------         PROC          _VSEC_LIGHTDETECTEN
  D:0007H         SYMBOL        LDVAL
  C:8CDFH         LINE#         53
  C:8CDFH         LINE#         54
  C:8CDFH         LINE#         56
  C:8CE2H         LINE#         58
  C:8CE9H         LINE#         60
  C:8CF0H         LINE#         62
  C:8CF7H         LINE#         64
  C:8CFEH         LINE#         65
  -------         ENDPROC       _VSEC_LIGHTDETECTEN
  -------         PROC          VSEC_TMPDETECT
  -------         DO            
  X:00EFH         SYMBOL        TmpY
  D:0006H         SYMBOL        AdcValue
  X:00F1H         SYMBOL        Tmp
  -------         ENDDO         
  C:7FA2H         LINE#         75
  C:7FA2H         LINE#         76
  C:7FA2H         LINE#         79
  C:7FA7H         LINE#         81
  C:7FAEH         LINE#         83
  C:7FC1H         LINE#         84
  C:7FC4H         LINE#         85
  C:7FC7H         LINE#         87
  C:8007H         LINE#         89
  C:800AH         LINE#         90
  C:8011H         LINE#         91
  C:801FH         LINE#         92
  -------         ENDPROC       VSEC_TMPDETECT
  -------         PROC          VSECINTPROCESS
  C:8E6EH         LINE#         93
  C:8E6EH         LINE#         94
  C:8E6EH         LINE#         95
  C:8E74H         LINE#         96
  C:8E77H         LINE#         97
  -------         ENDPROC       VSECINTPROCESS
  -------         ENDMOD        SECFUNC

  -------         MODULE        SCUFUNC
  C:0000H         SYMBOL        _ICE_DUMMY_
  -------         ENDMOD        SCUFUNC

  -------         MODULE        UARTFUNC
  C:0000H         SYMBOL        _ICE_DUMMY_
  D:00D4H         PUBLIC        UARTBUF
  C:86FCH         PUBLIC        _vUartSendData
  D:00D5H         PUBLIC        UARTCON
BL51 BANKED LINKER/LOCATER V6.22                                                      02/03/2015  17:48:48  PAGE 28


  C:8BAFH         PUBLIC        _vUartRecvData
  C:8E0CH         PUBLIC        vUartInit
  C:8DBDH         PUBLIC        ucUartGetByte
  D:0091H         PUBLIC        SCUMCG
  C:8DD1H         PUBLIC        _vUartPutByte
  D:00C0H         PUBLIC        IOMCR
  D:00D6H         PUBLIC        UARTSTAT
  -------         PROC          VUARTINIT
  C:8E0CH         LINE#         36
  C:8E0CH         LINE#         37
  C:8E0CH         LINE#         38
  C:8E0FH         LINE#         39
  C:8E12H         LINE#         40
  C:8E15H         LINE#         41
  C:8E18H         LINE#         42
  C:8E1BH         LINE#         56
  -------         ENDPROC       VUARTINIT
  -------         PROC          UCUARTGETBYTE
  C:8DBDH         LINE#         67
  C:8DBDH         LINE#         68
  C:8DBDH         LINE#         69
  C:8DC0H         LINE#         70
  C:8DC3H         LINE#         71
  C:8DC8H         LINE#         72
  C:8DCBH         LINE#         73
  C:8DCEH         LINE#         74
  C:8DD0H         LINE#         75
  -------         ENDPROC       UCUARTGETBYTE
  -------         PROC          _VUARTPUTBYTE
  D:0007H         SYMBOL        Byte
  C:8DD1H         LINE#         86
  C:8DD1H         LINE#         87
  C:8DD1H         LINE#         93
  C:8DD4H         LINE#         95
  C:8DD7H         LINE#         96
  C:8DD9H         LINE#         97
  C:8DDCH         LINE#         98
  C:8DE1H         LINE#         99
  C:8DE4H         LINE#         109
  -------         ENDPROC       _VUARTPUTBYTE
  -------         PROC          _VUARTSENDDATA
  X:0113H         SYMBOL        OutData
  D:0004H         SYMBOL        Len
  -------         DO            
  D:0006H         SYMBOL        TmpLen
  -------         ENDDO         
  C:86FCH         LINE#         121
  C:8707H         LINE#         122
  C:8707H         LINE#         124
  C:870FH         LINE#         125
  C:8712H         LINE#         126
  C:8727H         LINE#         127
  C:872AH         LINE#         128
  C:8734H         LINE#         129
  C:8734H         LINE#         130
  C:8739H         LINE#         131
  C:874EH         LINE#         132
BL51 BANKED LINKER/LOCATER V6.22                                                      02/03/2015  17:48:48  PAGE 29


  C:8750H         LINE#         133
  C:8755H         LINE#         134
  C:8758H         LINE#         135
  -------         ENDPROC       _VUARTSENDDATA
  -------         PROC          _VUARTRECVDATA
  D:0006H         SYMBOL        InData
  D:0004H         SYMBOL        Len
  C:8BAFH         LINE#         147
  C:8BAFH         LINE#         148
  C:8BAFH         LINE#         149
  C:8BB2H         LINE#         150
  C:8BB5H         LINE#         151
  C:8BBFH         LINE#         152
  C:8BBFH         LINE#         153
  C:8BC4H         LINE#         154
  C:8BD3H         LINE#         155
  C:8BD6H         LINE#         156
  C:8BD8H         LINE#         157
  C:8BDBH         LINE#         158
  -------         ENDPROC       _VUARTRECVDATA
  -------         ENDMOD        UARTFUNC

  -------         MODULE        TIMERFUNC
  C:0000H         SYMBOL        _ICE_DUMMY_
  B:00A8H.7       PUBLIC        EA
  D:0090H         PUBLIC        SCUOSCCTRL
  D:0098H         PUBLIC        SCUIE0
  D:0099H         PUBLIC        SCUIE1
  D:00B0H         PUBLIC        TM0CDATA
  D:00B1H         PUBLIC        TM1CDATA
  D:00A0H         PUBLIC        TM2CDATA
  D:00B3H         PUBLIC        TM0CON
  D:00A1H         PUBLIC        TM3CDATA
  D:00B4H         PUBLIC        TM1CON
  D:00B2H         PUBLIC        TM1MOD
  D:00A3H         PUBLIC        TM2CON
  D:00A2H         PUBLIC        TM2MOD
  D:00A4H         PUBLIC        TM3CON
  D:0096H         PUBLIC        SCUWE0
  D:0097H         PUBLIC        SCUWE1
  C:8863H         PUBLIC        _vTimerClkSel
  C:8434H         PUBLIC        _vTimer1Start
  C:8359H         PUBLIC        _vTimer2Start
  D:0091H         PUBLIC        SCUMCG
  B:00A8H.2       PUBLIC        EX1
  D:00F8H         PUBLIC        SCUTMRCG
  -------         PROC          _VTIMERCLKSEL
  X:0072H         SYMBOL        TimerNum
  X:0073H         SYMBOL        TimerClk
  C:8863H         LINE#         32
  C:886BH         LINE#         33
  C:886BH         LINE#         34
  C:888BH         LINE#         35
  C:888BH         LINE#         36
  C:888BH         LINE#         37
  C:888BH         LINE#         38
  C:888BH         LINE#         39
BL51 BANKED LINKER/LOCATER V6.22                                                      02/03/2015  17:48:48  PAGE 30


  C:888BH         LINE#         40
  C:888EH         LINE#         41
  C:8890H         LINE#         42
  C:8890H         LINE#         43
  C:8890H         LINE#         44
  C:8890H         LINE#         45
  C:8890H         LINE#         46
  C:8893H         LINE#         47
  C:8893H         LINE#         48
  C:8893H         LINE#         49
  C:8893H         LINE#         51
  C:8893H         LINE#         52
  C:889CH         LINE#         53
  C:889CH         LINE#         54
  C:889FH         LINE#         55
  C:889FH         LINE#         56
  C:88A1H         LINE#         57
  C:88AEH         LINE#         58
  C:88AEH         LINE#         59
  C:88B1H         LINE#         60
  C:88B7H         LINE#         61
  C:88B7H         LINE#         63
  -------         ENDPROC       _VTIMERCLKSEL
  -------         PROC          _VTIMER1START
  D:0006H         SYMBOL        TimerNum
  D:0004H         SYMBOL        Mode
  D:0002H         SYMBOL        InitValue
  X:0071H         SYMBOL        TimerClk
  C:8434H         LINE#         65
  C:8438H         LINE#         66
  C:8438H         LINE#         67
  C:843BH         LINE#         68
  C:8445H         LINE#         69
  C:8450H         LINE#         70
  C:8450H         LINE#         72
  C:8450H         LINE#         73
  C:8453H         LINE#         74
  C:8456H         LINE#         75
  C:8456H         LINE#         76
  C:8456H         LINE#         78
  C:8456H         LINE#         79
  C:8456H         LINE#         80
  C:8456H         LINE#         82
  C:8456H         LINE#         83
  C:8458H         LINE#         84
  C:845DH         LINE#         85
  C:845DH         LINE#         86
  C:845DH         LINE#         88
  C:845DH         LINE#         89
  C:845DH         LINE#         90
  C:845DH         LINE#         92
  C:845DH         LINE#         93
  C:845DH         LINE#         94
  C:845FH         LINE#         95
  C:845FH         LINE#         96
  C:8462H         LINE#         97
  C:8465H         LINE#         98
BL51 BANKED LINKER/LOCATER V6.22                                                      02/03/2015  17:48:48  PAGE 31


  C:8465H         LINE#         99
  C:8467H         LINE#         101
  C:846AH         LINE#         102
  C:846DH         LINE#         103
  C:8470H         LINE#         105
  C:8473H         LINE#         106
  C:8475H         LINE#         107
  C:847AH         LINE#         108
  C:847AH         LINE#         109
  C:847CH         LINE#         112
  C:847FH         LINE#         114
  C:8482H         LINE#         115
  C:8482H         LINE#         117
  C:8482H         LINE#         118
  C:8482H         LINE#         120
  C:8484H         LINE#         121
  C:8484H         LINE#         122
  C:8487H         LINE#         124
  C:8489H         LINE#         125
  C:848CH         LINE#         127
  C:848FH         LINE#         128
  C:8492H         LINE#         130
  C:8495H         LINE#         132
  C:8498H         LINE#         134
  C:849BH         LINE#         135
  C:849BH         LINE#         136
  C:849BH         LINE#         137
  C:849BH         LINE#         138
  C:849BH         LINE#         139
  C:849DH         LINE#         140
  C:849FH         LINE#         141
  -------         ENDPROC       _VTIMER1START
  -------         PROC          _VTIMER2START
  D:0006H         SYMBOL        TimerNum
  D:0004H         SYMBOL        Mode
  D:0002H         SYMBOL        InitValue
  X:0011H         SYMBOL        TimerClk
  C:8359H         LINE#         155
  C:835DH         LINE#         156
  C:835DH         LINE#         157
  C:8360H         LINE#         158
  C:836AH         LINE#         159
  C:8375H         LINE#         160
  C:8375H         LINE#         161
  C:8375H         LINE#         162
  C:8378H         LINE#         163
  C:837CH         LINE#         164
  C:837CH         LINE#         165
  C:837CH         LINE#         167
  C:837CH         LINE#         168
  C:837CH         LINE#         169
  C:837CH         LINE#         171
  C:837CH         LINE#         172
  C:837EH         LINE#         173
  C:8383H         LINE#         174
  C:8383H         LINE#         176
  C:8383H         LINE#         178
BL51 BANKED LINKER/LOCATER V6.22                                                      02/03/2015  17:48:48  PAGE 32


  C:8383H         LINE#         179
  C:8383H         LINE#         180
  C:8383H         LINE#         182
  C:8383H         LINE#         183
  C:8383H         LINE#         184
  C:8385H         LINE#         185
  C:8385H         LINE#         186
  C:8388H         LINE#         187
  C:838CH         LINE#         188
  C:838CH         LINE#         189
  C:838EH         LINE#         191
  C:8391H         LINE#         192
  C:8394H         LINE#         193
  C:8397H         LINE#         195
  C:839AH         LINE#         196
  C:839CH         LINE#         197
  C:83A1H         LINE#         198
  C:83A1H         LINE#         199
  C:83A3H         LINE#         201
  C:83A6H         LINE#         202
  C:83A9H         LINE#         203
  C:83A9H         LINE#         205
  C:83A9H         LINE#         206
  C:83A9H         LINE#         207
  C:83ABH         LINE#         208
  C:83ABH         LINE#         209
  C:83AEH         LINE#         211
  C:83B0H         LINE#         212
  C:83B3H         LINE#         214
  C:83B6H         LINE#         215
  C:83B9H         LINE#         217
  C:83BCH         LINE#         219
  C:83BFH         LINE#         221
  C:83C2H         LINE#         222
  C:83C2H         LINE#         223
  C:83C2H         LINE#         224
  C:83C2H         LINE#         225
  C:83C2H         LINE#         226
  C:83C4H         LINE#         228
  C:83C6H         LINE#         229
  -------         ENDPROC       _VTIMER2START
  -------         ENDMOD        TIMERFUNC

  -------         MODULE        ISRFRAME
  C:0000H         SYMBOL        _ICE_DUMMY_
  C:8200H         PUBLIC        vTF0_ISR
  C:8189H         PUBLIC        vTF1_ISR
  C:8275H         PUBLIC        vEX0_ISR
  C:7B9DH         PUBLIC        vEX1_ISR
  B:00A8H.4       PUBLIC        ES
  D:00D4H         PUBLIC        UARTBUF
  D:00C7H         PUBLIC        IOMP0DOUT
  D:00B4H         PUBLIC        TM1CON
  D:009AH         PUBLIC        SCUIS0
  D:009BH         PUBLIC        SCUIS1
  D:00B5H         PUBLIC        TM1INTSTS
  D:00A5H         PUBLIC        TM2INTSTS
BL51 BANKED LINKER/LOCATER V6.22                                                      02/03/2015  17:48:48  PAGE 33


  D:00DFH         PUBLIC        TBCINTSTS
  B:00A8H.1       PUBLIC        ET0
  B:00A8H.3       PUBLIC        ET1
  B:00A8H.0       PUBLIC        EX0
  B:00A8H.2       PUBLIC        EX1
  D:00BCH         PUBLIC        IOMP1ISR
  D:00CCH         PUBLIC        IOMP1INTS1
  D:00CDH         PUBLIC        IOMP1INTS2
  C:7D71H         PUBLIC        vSI_ISR
  X:0118H         PUBLIC        iFlag
  D:00D6H         PUBLIC        UARTSTAT
  -------         PROC          VEX0_ISR
  C:8275H         LINE#         16
  C:8292H         LINE#         18
  C:8295H         LINE#         19
  C:8297H         LINE#         22
  C:829CH         LINE#         23
  C:829CH         LINE#         24
  C:829FH         LINE#         25
  C:82A5H         LINE#         26
  C:82A8H         LINE#         28
  C:82B7H         LINE#         29
  C:82B7H         LINE#         32
  C:82BCH         LINE#         33
  C:82BCH         LINE#         34
  C:82BFH         LINE#         35
  C:82C8H         LINE#         36
  C:82C8H         LINE#         40
  C:82CAH         LINE#         41
  C:82CDH         LINE#         42
  -------         ENDPROC       VEX0_ISR
  -------         PROC          VTF0_ISR
  C:8200H         LINE#         45
  C:821DH         LINE#         47
  C:8220H         LINE#         48
  C:8222H         LINE#         51
  C:8227H         LINE#         52
  C:8227H         LINE#         54
  C:822DH         LINE#         55
  C:824CH         LINE#         57
  C:824FH         LINE#         58
  C:8255H         LINE#         59
  C:8255H         LINE#         61
  C:8257H         LINE#         62
  C:825AH         LINE#         63
  -------         ENDPROC       VTF0_ISR
  -------         PROC          VEX1_ISR
  C:7B9DH         LINE#         65
  C:7BBAH         LINE#         67
  C:7BBDH         LINE#         68
  C:7BBFH         LINE#         71
  C:7BC4H         LINE#         72
  C:7BC4H         LINE#         73
  C:7BC7H         LINE#         74
  C:7BCCH         LINE#         76
  C:7BCFH         LINE#         78
  C:7BD1H         LINE#         79
BL51 BANKED LINKER/LOCATER V6.22                                                      02/03/2015  17:48:48  PAGE 34


  C:7BD6H         LINE#         80
  C:7BD6H         LINE#         81
  C:7BD9H         LINE#         82
  C:7BDFH         LINE#         83
  C:7BE2H         LINE#         84
  C:7BE5H         LINE#         86
  C:7BF3H         LINE#         88
  C:7C01H         LINE#         89
  C:7C03H         LINE#         90
  C:7C08H         LINE#         91
  C:7C08H         LINE#         92
  C:7C0BH         LINE#         93
  C:7C11H         LINE#         95
  C:7C14H         LINE#         96
  C:7C14H         LINE#         97
  C:7C19H         LINE#         98
  C:7C19H         LINE#         100
  C:7C1CH         LINE#         101
  C:7C22H         LINE#         103
  C:7C25H         LINE#         107
  C:7C25H         LINE#         111
  C:7C27H         LINE#         112
  C:7C2AH         LINE#         113
  -------         ENDPROC       VEX1_ISR
  -------         PROC          VTF1_ISR
  C:8189H         LINE#         114
  C:81A6H         LINE#         116
  C:81A9H         LINE#         117
  C:81ABH         LINE#         118
  C:81AEH         LINE#         121
  C:81B3H         LINE#         122
  C:81B3H         LINE#         123
  C:81B6H         LINE#         124
  C:81D5H         LINE#         126
  C:81D5H         LINE#         129
  C:81DAH         LINE#         130
  C:81DAH         LINE#         131
  C:81DDH         LINE#         133
  C:81DDH         LINE#         135
  C:81E0H         LINE#         136
  C:81E2H         LINE#         137
  C:81E5H         LINE#         138
  -------         ENDPROC       VTF1_ISR
  -------         PROC          VSI_ISR
  C:7D71H         LINE#         140
  C:7D8EH         LINE#         142
  C:7D91H         LINE#         143
  C:7D93H         LINE#         146
  C:7D98H         LINE#         147
  C:7D98H         LINE#         148
  C:7DACH         LINE#         149
  C:7DAFH         LINE#         150
  C:7DB6H         LINE#         151
  C:7DB6H         LINE#         152
  C:7DBCH         LINE#         153
  C:7DBCH         LINE#         154
  C:7DBCH         LINE#         156
BL51 BANKED LINKER/LOCATER V6.22                                                      02/03/2015  17:48:48  PAGE 35


  C:7DC1H         LINE#         157
  C:7DC1H         LINE#         158
  C:7DC7H         LINE#         160
  C:7DCDH         LINE#         161
  C:7DCDH         LINE#         162
  C:7DD0H         LINE#         164
  C:7DD2H         LINE#         165
  C:7DD8H         LINE#         166
  C:7DD8H         LINE#         167
  C:7DDBH         LINE#         169
  C:7DDBH         LINE#         171
  C:7DDEH         LINE#         172
  C:7DE4H         LINE#         175
  C:7DE4H         LINE#         179
  C:7DE6H         LINE#         180
  C:7DE9H         LINE#         181
  -------         ENDPROC       VSI_ISR
  -------         ENDMOD        ISRFRAME

  -------         MODULE        SCUFRAME
  C:0000H         SYMBOL        _ICE_DUMMY_
  D:00F9H         PUBLIC        SCULCDSWEN
  B:00A8H.7       PUBLIC        EA
  D:0092H         PUBLIC        SCUPM
  D:0090H         PUBLIC        SCUOSCCTRL
  D:0094H         PUBLIC        SCUSO
  D:0095H         PUBLIC        SCUWT
  B:00A8H.4       PUBLIC        ES
  C:2964H         PUBLIC        vScuVerify
  D:00DEH         PUBLIC        TBCDR0
  D:00DDH         PUBLIC        TBCDR1
  D:00DCH         PUBLIC        TBCDR2
  D:009CH         PUBLIC        SCUCTRL
  D:00DBH         PUBLIC        TBCDR3
  X:0104H         PUBLIC        _SCU_FLAG_
  D:0098H         PUBLIC        SCUIE0
  D:0099H         PUBLIC        SCUIE1
  D:0087H         PUBLIC        PCON
  D:009AH         PUBLIC        SCUIS0
  D:0096H         PUBLIC        SCUWE0
  D:009BH         PUBLIC        SCUIS1
  D:0097H         PUBLIC        SCUWE1
  B:0020H.0       PUBLIC        CharData_0_Bit0
  B:0021H.0       PUBLIC        CharData_1_Bit0
  B:0020H.1       PUBLIC        CharData_0_Bit1
  B:0022H.0       PUBLIC        CharData_2_Bit0
  B:0021H.1       PUBLIC        CharData_1_Bit1
  B:0020H.2       PUBLIC        CharData_0_Bit2
  B:0023H.0       PUBLIC        CharData_3_Bit0
  B:0022H.1       PUBLIC        CharData_2_Bit1
  B:0021H.2       PUBLIC        CharData_1_Bit2
  B:0020H.3       PUBLIC        CharData_0_Bit3
  X:0780H         PUBLIC        TestBuf
  B:0024H.0       PUBLIC        CharData_4_Bit0
  B:0023H.1       PUBLIC        CharData_3_Bit1
  B:0022H.2       PUBLIC        CharData_2_Bit2
  B:0021H.3       PUBLIC        CharData_1_Bit3
BL51 BANKED LINKER/LOCATER V6.22                                                      02/03/2015  17:48:48  PAGE 36


  B:0020H.4       PUBLIC        CharData_0_Bit4
  B:0025H.0       PUBLIC        CharData_5_Bit0
  B:0024H.1       PUBLIC        CharData_4_Bit1
  B:0023H.2       PUBLIC        CharData_3_Bit2
  B:0022H.3       PUBLIC        CharData_2_Bit3
  B:0021H.4       PUBLIC        CharData_1_Bit4
  B:0020H.5       PUBLIC        CharData_0_Bit5
  B:0026H.0       PUBLIC        CharData_6_Bit0
  B:0025H.1       PUBLIC        CharData_5_Bit1
  B:0024H.2       PUBLIC        CharData_4_Bit2
  B:0023H.3       PUBLIC        CharData_3_Bit3
  B:0022H.4       PUBLIC        CharData_2_Bit4
  B:0021H.5       PUBLIC        CharData_1_Bit5
  B:0020H.6       PUBLIC        CharData_0_Bit6
  D:0091H         PUBLIC        SCUMCG
  B:0027H.0       PUBLIC        CharData_7_Bit0
  B:0026H.1       PUBLIC        CharData_6_Bit1
  B:0025H.2       PUBLIC        CharData_5_Bit2
  B:0024H.3       PUBLIC        CharData_4_Bit3
  B:0023H.4       PUBLIC        CharData_3_Bit4
  B:0022H.5       PUBLIC        CharData_2_Bit5
  B:0021H.6       PUBLIC        CharData_1_Bit6
  B:0020H.7       PUBLIC        CharData_0_Bit7
  B:0028H.0       PUBLIC        CharData_8_Bit0
  B:0027H.1       PUBLIC        CharData_7_Bit1
  B:0026H.2       PUBLIC        CharData_6_Bit2
  B:0025H.3       PUBLIC        CharData_5_Bit3
  B:0024H.4       PUBLIC        CharData_4_Bit4
  B:0023H.5       PUBLIC        CharData_3_Bit5
  B:0022H.6       PUBLIC        CharData_2_Bit6
  B:0021H.7       PUBLIC        CharData_1_Bit7
  B:0029H.0       PUBLIC        CharData_9_Bit0
  B:0028H.1       PUBLIC        CharData_8_Bit1
  B:0027H.2       PUBLIC        CharData_7_Bit2
  B:0026H.3       PUBLIC        CharData_6_Bit3
  B:0025H.4       PUBLIC        CharData_5_Bit4
  B:0024H.5       PUBLIC        CharData_4_Bit5
  B:0023H.6       PUBLIC        CharData_3_Bit6
  B:0022H.7       PUBLIC        CharData_2_Bit7
  B:0029H.1       PUBLIC        CharData_9_Bit1
  B:0028H.2       PUBLIC        CharData_8_Bit2
  B:0027H.3       PUBLIC        CharData_7_Bit3
  B:0026H.4       PUBLIC        CharData_6_Bit4
  B:0025H.5       PUBLIC        CharData_5_Bit5
  B:0024H.6       PUBLIC        CharData_4_Bit6
  B:0023H.7       PUBLIC        CharData_3_Bit7
  B:0029H.2       PUBLIC        CharData_9_Bit2
  B:0028H.3       PUBLIC        CharData_8_Bit3
  B:0027H.4       PUBLIC        CharData_7_Bit4
  B:0026H.5       PUBLIC        CharData_6_Bit5
  B:0025H.6       PUBLIC        CharData_5_Bit6
  B:0024H.7       PUBLIC        CharData_4_Bit7
  B:00A8H.1       PUBLIC        ET0
  B:0029H.3       PUBLIC        CharData_9_Bit3
  B:0028H.4       PUBLIC        CharData_8_Bit4
  B:0027H.5       PUBLIC        CharData_7_Bit5
  B:0026H.6       PUBLIC        CharData_6_Bit6
BL51 BANKED LINKER/LOCATER V6.22                                                      02/03/2015  17:48:48  PAGE 37


  B:0025H.7       PUBLIC        CharData_5_Bit7
  B:00A8H.3       PUBLIC        ET1
  B:0029H.4       PUBLIC        CharData_9_Bit4
  B:0028H.5       PUBLIC        CharData_8_Bit5
  B:0027H.6       PUBLIC        CharData_7_Bit6
  B:0026H.7       PUBLIC        CharData_6_Bit7
  B:0029H.5       PUBLIC        CharData_9_Bit5
  B:0028H.6       PUBLIC        CharData_8_Bit6
  B:0027H.7       PUBLIC        CharData_7_Bit7
  B:0029H.6       PUBLIC        CharData_9_Bit6
  B:0028H.7       PUBLIC        CharData_8_Bit7
  B:00A8H.0       PUBLIC        EX0
  B:0029H.7       PUBLIC        CharData_9_Bit7
  C:1C16H         PUBLIC        vBitRamAreaTest
  D:0093H         PUBLIC        SCUPMP
  B:002AH.0       PUBLIC        CharData_10_Bit0
  B:002BH.0       PUBLIC        CharData_11_Bit0
  B:002AH.1       PUBLIC        CharData_10_Bit1
  B:002CH.0       PUBLIC        CharData_12_Bit0
  B:002BH.1       PUBLIC        CharData_11_Bit1
  B:002AH.2       PUBLIC        CharData_10_Bit2
  B:002DH.0       PUBLIC        CharData_13_Bit0
  B:002CH.1       PUBLIC        CharData_12_Bit1
  B:002BH.2       PUBLIC        CharData_11_Bit2
  B:002AH.3       PUBLIC        CharData_10_Bit3
  B:002DH.1       PUBLIC        CharData_13_Bit1
  B:002CH.2       PUBLIC        CharData_12_Bit2
  B:002BH.3       PUBLIC        CharData_11_Bit3
  B:002AH.4       PUBLIC        CharData_10_Bit4
  B:002DH.2       PUBLIC        CharData_13_Bit2
  B:002CH.3       PUBLIC        CharData_12_Bit3
  B:002BH.4       PUBLIC        CharData_11_Bit4
  B:002AH.5       PUBLIC        CharData_10_Bit5
  B:002DH.3       PUBLIC        CharData_13_Bit3
  B:002CH.4       PUBLIC        CharData_12_Bit4
  B:002BH.5       PUBLIC        CharData_11_Bit5
  B:002AH.6       PUBLIC        CharData_10_Bit6
  B:002DH.4       PUBLIC        CharData_13_Bit4
  B:002CH.5       PUBLIC        CharData_12_Bit5
  B:002BH.6       PUBLIC        CharData_11_Bit6
  B:002AH.7       PUBLIC        CharData_10_Bit7
  B:002DH.5       PUBLIC        CharData_13_Bit5
  B:002CH.6       PUBLIC        CharData_12_Bit6
  B:002BH.7       PUBLIC        CharData_11_Bit7
  B:002DH.6       PUBLIC        CharData_13_Bit6
  B:002CH.7       PUBLIC        CharData_12_Bit7
  B:002DH.7       PUBLIC        CharData_13_Bit7
  D:00C0H         PUBLIC        IOMCR
  D:0020H         PUBLIC        CharData
  -------         PROC          VSCUVERIFY
  C:2964H         LINE#         63
  C:2964H         LINE#         64
  C:2964H         LINE#         66
  C:2982H         LINE#         67
  C:29B0H         LINE#         68
  C:29B0H         LINE#         69
  C:29B0H         LINE#         70
BL51 BANKED LINKER/LOCATER V6.22                                                      02/03/2015  17:48:48  PAGE 38


  C:29E8H         LINE#         71
  C:2A1EH         LINE#         72
  C:2A54H         LINE#         73
  C:2A8AH         LINE#         74
  C:2AC2H         LINE#         75
  C:2AFAH         LINE#         76
  C:2B30H         LINE#         77
  C:2B66H         LINE#         78
  C:2B9CH         LINE#         79
  C:2BD2H         LINE#         80
  C:2C08H         LINE#         81
  C:2C3CH         LINE#         82
  C:2C3FH         LINE#         83
  C:2C3FH         LINE#         84
  C:2D1AH         LINE#         85
  C:2DF6H         LINE#         86
  C:2ED1H         LINE#         87
  C:2FAAH         LINE#         88
  C:2FADH         LINE#         89
  C:2FADH         LINE#         91
  C:2FB0H         LINE#         94
  C:2FB3H         LINE#         95
  C:2FB6H         LINE#         96
  C:2FBEH         LINE#         97
  C:2FBEH         LINE#         98
  C:2FC4H         LINE#         99
  C:2FC6H         LINE#         100
  C:2FCAH         LINE#         101
  C:2FCAH         LINE#         102
  C:2FD0H         LINE#         103
  C:2FD2H         LINE#         104
  C:2FD6H         LINE#         105
  C:2FD6H         LINE#         106
  C:2FDCH         LINE#         107
  C:2FDEH         LINE#         108
  C:2FE2H         LINE#         109
  C:2FE2H         LINE#         110
  C:2FE8H         LINE#         111
  C:2FEAH         LINE#         112
  C:2FEEH         LINE#         113
  C:2FEEH         LINE#         114
  C:2FF4H         LINE#         115
  C:2FF6H         LINE#         116
  C:2FFAH         LINE#         117
  C:2FFAH         LINE#         118
  C:2FFDH         LINE#         119
  C:2FFFH         LINE#         121
  C:2FFFH         LINE#         122
  C:3005H         LINE#         123
  C:3005H         LINE#         125
  C:3008H         LINE#         126
  C:300AH         LINE#         127
  C:300CH         LINE#         129
  C:300CH         LINE#         130
  C:300CH         LINE#         131
  C:3079H         LINE#         132
  C:307FH         LINE#         133
BL51 BANKED LINKER/LOCATER V6.22                                                      02/03/2015  17:48:48  PAGE 39


  C:30ECH         LINE#         134
  C:3109H         LINE#         135
  C:310CH         LINE#         136
  C:310CH         LINE#         137
  C:310CH         LINE#         138
  C:3113H         LINE#         139
  C:3113H         LINE#         140
  C:3116H         LINE#         141
  C:3119H         LINE#         142
  C:311BH         LINE#         143
  C:311DH         LINE#         144
  C:3120H         LINE#         145
  C:3122H         LINE#         147
  C:3122H         LINE#         148
  C:3125H         LINE#         149
  C:312EH         LINE#         150
  C:3137H         LINE#         151
  C:3137H         LINE#         152
  C:3137H         LINE#         153
  C:3137H         LINE#         154
  C:313CH         LINE#         155
  C:313CH         LINE#         156
  C:314BH         LINE#         157
  C:314BH         LINE#         158
  C:314DH         LINE#         159
  C:314DH         LINE#         160
  C:314DH         LINE#         161
  C:3150H         LINE#         162
  C:3158H         LINE#         163
  C:3158H         LINE#         164
  C:315EH         LINE#         165
  C:3160H         LINE#         166
  C:3164H         LINE#         167
  C:3164H         LINE#         168
  C:316DH         LINE#         169
  C:316FH         LINE#         170
  C:3173H         LINE#         171
  C:3173H         LINE#         172
  C:317CH         LINE#         173
  C:317EH         LINE#         175
  C:317EH         LINE#         176
  C:3187H         LINE#         177
  C:3187H         LINE#         178
  C:318FH         LINE#         179
  C:318FH         LINE#         181
  C:3192H         LINE#         182
  C:3195H         LINE#         183
  C:3198H         LINE#         184
  C:319BH         LINE#         185
  C:319DH         LINE#         186
  C:319FH         LINE#         188
  C:31A5H         LINE#         189
  C:31AEH         LINE#         190
  C:31B1H         LINE#         192
  C:31B1H         LINE#         193
  C:31B7H         LINE#         194
  C:31BAH         LINE#         200
BL51 BANKED LINKER/LOCATER V6.22                                                      02/03/2015  17:48:48  PAGE 40


  C:31BDH         LINE#         201
  C:31C0H         LINE#         202
  C:31C2H         LINE#         203
  C:31C4H         LINE#         204
  C:31C7H         LINE#         206
  C:31CDH         LINE#         207
  C:31CDH         LINE#         208
  C:31D0H         LINE#         209
  C:31D0H         LINE#         210
  C:31D3H         LINE#         212
  C:31D6H         LINE#         213
  C:31D9H         LINE#         214
  C:31E1H         LINE#         215
  C:31E1H         LINE#         216
  C:31E4H         LINE#         217
  C:31E6H         LINE#         218
  C:31EAH         LINE#         219
  C:31EAH         LINE#         220
  C:31F0H         LINE#         221
  C:31F2H         LINE#         222
  C:31F6H         LINE#         223
  C:31F6H         LINE#         224
  C:31FCH         LINE#         225
  C:31FEH         LINE#         226
  C:3202H         LINE#         227
  C:3202H         LINE#         228
  C:3208H         LINE#         229
  C:320AH         LINE#         230
  C:320EH         LINE#         231
  C:320EH         LINE#         232
  C:3214H         LINE#         233
  C:3216H         LINE#         234
  C:321AH         LINE#         235
  C:321AH         LINE#         236
  C:3220H         LINE#         237
  C:3222H         LINE#         239
  C:3222H         LINE#         240
  C:3228H         LINE#         241
  C:3228H         LINE#         244
  C:322BH         LINE#         245
  C:3234H         LINE#         246
  C:323DH         LINE#         248
  C:3240H         LINE#         249
  C:3240H         LINE#         250
  C:3243H         LINE#         252
  C:3246H         LINE#         253
  C:3249H         LINE#         254
  C:3251H         LINE#         255
  C:3251H         LINE#         256
  C:3254H         LINE#         257
  C:3256H         LINE#         258
  C:325AH         LINE#         259
  C:325AH         LINE#         260
  C:3260H         LINE#         261
  C:3262H         LINE#         262
  C:3266H         LINE#         263
  C:3266H         LINE#         264
BL51 BANKED LINKER/LOCATER V6.22                                                      02/03/2015  17:48:48  PAGE 41


  C:326CH         LINE#         265
  C:326EH         LINE#         266
  C:3272H         LINE#         267
  C:3272H         LINE#         268
  C:3278H         LINE#         269
  C:327AH         LINE#         270
  C:327EH         LINE#         271
  C:327EH         LINE#         272
  C:3284H         LINE#         273
  C:3286H         LINE#         274
  C:328AH         LINE#         275
  C:328AH         LINE#         276
  C:3290H         LINE#         277
  C:3292H         LINE#         279
  C:3292H         LINE#         280
  C:3298H         LINE#         281
  C:3298H         LINE#         282
  C:329BH         LINE#         283
  C:329BH         LINE#         284
  C:329BH         LINE#         285
  C:32AAH         LINE#         286
  C:32B0H         LINE#         287
  C:32B3H         LINE#         288
  C:32C2H         LINE#         291
  C:32C8H         LINE#         292
  C:32CBH         LINE#         295
  C:32DAH         LINE#         296
  C:32E0H         LINE#         297
  C:32E3H         LINE#         298
  C:32F2H         LINE#         301
  C:32F8H         LINE#         302
  C:32FBH         LINE#         303
  C:330AH         LINE#         305
  C:330CH         LINE#         309
  C:330CH         LINE#         310
  C:330CH         LINE#         311
  C:331BH         LINE#         312
  C:331EH         LINE#         315
  C:3320H         LINE#         316
  C:3320H         LINE#         317
  C:3323H         LINE#         318
  C:3326H         LINE#         320
  C:3326H         LINE#         321
  C:3326H         LINE#         322
  C:3326H         LINE#         323
  C:3326H         LINE#         324
  -------         ENDPROC       VSCUVERIFY
  -------         PROC          VBITRAMAREATEST
  -------         DO            
  X:0004H         SYMBOL        i
  X:0006H         SYMBOL        j
  -------         DO            
  X:0008H         SYMBOL        pBdata
  X:0008H         SYMBOL        pXdata
  -------         ENDDO         
  -------         DO            
  X:0008H         SYMBOL        pXdata
BL51 BANKED LINKER/LOCATER V6.22                                                      02/03/2015  17:48:48  PAGE 42


  -------         ENDDO         
  -------         ENDDO         
  C:1C16H         LINE#         329
  C:1C16H         LINE#         330
  C:1C16H         LINE#         332
  C:1C26H         LINE#         333
  C:1C26H         LINE#         335
  C:1C26H         LINE#         336
  C:1C26H         LINE#         339
  C:1C2CH         LINE#         340
  C:1C35H         LINE#         342
  C:1C46H         LINE#         343
  C:1C46H         LINE#         344
  C:1C6BH         LINE#         345
  C:1C73H         LINE#         346
  C:1C90H         LINE#         347
  C:1C98H         LINE#         348
  C:1CB5H         LINE#         349
  C:1CBDH         LINE#         350
  C:1CDAH         LINE#         351
  C:1CE2H         LINE#         352
  C:1CFFH         LINE#         353
  C:1D06H         LINE#         354
  C:1D09H         LINE#         355
  C:1D0CH         LINE#         357
  C:1D0CH         LINE#         359
  C:1D26H         LINE#         360
  C:1D26H         LINE#         361
  C:1D2FH         LINE#         362
  C:1D40H         LINE#         363
  C:1D51H         LINE#         364
  C:1D51H         LINE#         365
  C:1D69H         LINE#         366
  C:1DAEH         LINE#         367
  C:1DAEH         LINE#         368
  C:1DAEH         LINE#         369
  C:1DB4H         LINE#         370
  C:1DC4H         LINE#         371
  C:1DE3H         LINE#         372
  C:1DEEH         LINE#         373
  C:1DFEH         LINE#         374
  C:1E1DH         LINE#         375
  C:1E28H         LINE#         376
  C:1E38H         LINE#         377
  C:1E38H         LINE#         378
  C:1E38H         LINE#         379
  C:1E38H         LINE#         380
  C:1E3BH         LINE#         381
  C:1E3BH         LINE#         382
  C:1E46H         LINE#         383
  C:1E56H         LINE#         384
  C:1E75H         LINE#         385
  C:1E80H         LINE#         386
  C:1E90H         LINE#         387
  C:1EAFH         LINE#         388
  C:1EBAH         LINE#         389
  C:1ECAH         LINE#         390
BL51 BANKED LINKER/LOCATER V6.22                                                      02/03/2015  17:48:48  PAGE 43


  C:1ECAH         LINE#         391
  C:1ECAH         LINE#         392
  C:1ECAH         LINE#         393
  C:1ECDH         LINE#         394
  C:1ECDH         LINE#         395
  C:1ED8H         LINE#         396
  C:1EE8H         LINE#         397
  C:1F07H         LINE#         398
  C:1F12H         LINE#         399
  C:1F22H         LINE#         400
  C:1F41H         LINE#         401
  C:1F4CH         LINE#         402
  C:1F5CH         LINE#         403
  C:1F5CH         LINE#         404
  C:1F5CH         LINE#         405
  C:1F5CH         LINE#         406
  C:1F5FH         LINE#         407
  C:1F5FH         LINE#         408
  C:1F6AH         LINE#         409
  C:1F7AH         LINE#         410
  C:1F99H         LINE#         411
  C:1FA4H         LINE#         412
  C:1FB4H         LINE#         413
  C:1FD3H         LINE#         414
  C:1FDEH         LINE#         415
  C:1FEEH         LINE#         416
  C:1FEEH         LINE#         417
  C:1FEEH         LINE#         418
  C:1FEEH         LINE#         419
  C:1FF1H         LINE#         420
  C:1FF1H         LINE#         421
  C:1FFCH         LINE#         422
  C:200CH         LINE#         423
  C:202BH         LINE#         424
  C:2036H         LINE#         425
  C:2046H         LINE#         426
  C:2065H         LINE#         427
  C:2070H         LINE#         428
  C:2080H         LINE#         429
  C:2080H         LINE#         430
  C:2080H         LINE#         431
  C:2080H         LINE#         432
  C:2083H         LINE#         433
  C:2083H         LINE#         434
  C:208EH         LINE#         435
  C:209EH         LINE#         436
  C:20BDH         LINE#         437
  C:20C8H         LINE#         438
  C:20D8H         LINE#         439
  C:20F7H         LINE#         440
  C:2102H         LINE#         441
  C:2112H         LINE#         442
  C:2112H         LINE#         443
  C:2112H         LINE#         444
  C:2112H         LINE#         445
  C:2115H         LINE#         446
  C:2115H         LINE#         447
BL51 BANKED LINKER/LOCATER V6.22                                                      02/03/2015  17:48:48  PAGE 44


  C:2120H         LINE#         448
  C:2130H         LINE#         449
  C:214FH         LINE#         450
  C:215AH         LINE#         451
  C:216AH         LINE#         452
  C:2189H         LINE#         453
  C:2194H         LINE#         454
  C:21A4H         LINE#         455
  C:21A4H         LINE#         456
  C:21A4H         LINE#         457
  C:21A4H         LINE#         458
  C:21A7H         LINE#         459
  C:21A7H         LINE#         460
  C:21B2H         LINE#         461
  C:21C2H         LINE#         462
  C:21E1H         LINE#         463
  C:21ECH         LINE#         464
  C:21FCH         LINE#         465
  C:221BH         LINE#         466
  C:2226H         LINE#         467
  C:2236H         LINE#         468
  C:2236H         LINE#         469
  C:2236H         LINE#         470
  C:2236H         LINE#         471
  C:2239H         LINE#         472
  C:2239H         LINE#         473
  C:2244H         LINE#         474
  C:2254H         LINE#         475
  C:2273H         LINE#         476
  C:227EH         LINE#         477
  C:228EH         LINE#         478
  C:22ADH         LINE#         479
  C:22B8H         LINE#         480
  C:22C8H         LINE#         481
  C:22C8H         LINE#         482
  C:22C8H         LINE#         483
  C:22C8H         LINE#         484
  C:22CBH         LINE#         485
  C:22CBH         LINE#         486
  C:22D6H         LINE#         487
  C:22E6H         LINE#         488
  C:2305H         LINE#         489
  C:2310H         LINE#         490
  C:2320H         LINE#         491
  C:233FH         LINE#         492
  C:234AH         LINE#         493
  C:235AH         LINE#         494
  C:235AH         LINE#         495
  C:235AH         LINE#         496
  C:235AH         LINE#         497
  C:235DH         LINE#         498
  C:235DH         LINE#         499
  C:2368H         LINE#         500
  C:2378H         LINE#         501
  C:2397H         LINE#         502
  C:23A2H         LINE#         503
  C:23B2H         LINE#         504
BL51 BANKED LINKER/LOCATER V6.22                                                      02/03/2015  17:48:48  PAGE 45


  C:23D1H         LINE#         505
  C:23DCH         LINE#         506
  C:23ECH         LINE#         507
  C:23ECH         LINE#         508
  C:23ECH         LINE#         509
  C:23ECH         LINE#         510
  C:23EFH         LINE#         511
  C:23EFH         LINE#         512
  C:23FAH         LINE#         513
  C:240AH         LINE#         514
  C:2429H         LINE#         515
  C:2434H         LINE#         516
  C:2444H         LINE#         517
  C:2463H         LINE#         518
  C:246EH         LINE#         519
  C:247EH         LINE#         520
  C:247EH         LINE#         521
  C:247EH         LINE#         522
  C:247EH         LINE#         523
  C:2481H         LINE#         524
  C:2481H         LINE#         525
  C:248CH         LINE#         526
  C:249CH         LINE#         527
  C:24BBH         LINE#         528
  C:24C6H         LINE#         529
  C:24D6H         LINE#         530
  C:24F5H         LINE#         531
  C:2500H         LINE#         532
  C:2510H         LINE#         533
  C:252FH         LINE#         534
  C:253AH         LINE#         535
  C:2559H         LINE#         536
  C:2559H         LINE#         538
  C:2559H         LINE#         539
  C:2559H         LINE#         540
  C:2559H         LINE#         541
  C:2562H         LINE#         542
  C:256BH         LINE#         543
  C:256EH         LINE#         544
  C:257FH         LINE#         545
  C:257FH         LINE#         546
  C:257FH         LINE#         547
  C:257FH         LINE#         548
  C:257FH         LINE#         549
  C:257FH         LINE#         552
  C:2589H         LINE#         553
  C:2590H         LINE#         554
  C:25A1H         LINE#         555
  C:25A1H         LINE#         556
  C:25C1H         LINE#         557
  C:25CFH         LINE#         558
  C:25F0H         LINE#         559
  C:25FFH         LINE#         560
  C:2620H         LINE#         561
  C:262FH         LINE#         562
  C:2650H         LINE#         563
  C:265FH         LINE#         564
BL51 BANKED LINKER/LOCATER V6.22                                                      02/03/2015  17:48:48  PAGE 46


  C:267FH         LINE#         565
  C:268CH         LINE#         566
  C:269AH         LINE#         567
  C:26A8H         LINE#         568
  C:26ABH         LINE#         570
  C:26ABH         LINE#         572
  C:26B2H         LINE#         573
  C:26B2H         LINE#         574
  C:26C5H         LINE#         575
  C:26DFH         LINE#         576
  C:26E6H         LINE#         577
  C:26E6H         LINE#         578
  C:2700H         LINE#         579
  C:2700H         LINE#         580
  C:271FH         LINE#         581
  C:271FH         LINE#         582
  C:2736H         LINE#         584
  C:2745H         LINE#         585
  C:275BH         LINE#         586
  C:275BH         LINE#         587
  C:2764H         LINE#         588
  C:2766H         LINE#         590
  C:2766H         LINE#         591
  C:277BH         LINE#         592
  C:277BH         LINE#         593
  C:278BH         LINE#         594
  C:278BH         LINE#         595
  C:27A6H         LINE#         596
  C:27A6H         LINE#         598
  C:27B6H         LINE#         599
  C:27B6H         LINE#         601
  C:27C5H         LINE#         602
  C:27DBH         LINE#         603
  C:27DBH         LINE#         604
  C:27E4H         LINE#         605
  C:27E6H         LINE#         607
  C:27E6H         LINE#         608
  C:27FBH         LINE#         609
  C:27FBH         LINE#         610
  C:280BH         LINE#         611
  C:280BH         LINE#         612
  C:2826H         LINE#         613
  C:2826H         LINE#         615
  C:2836H         LINE#         616
  C:2836H         LINE#         618
  C:2845H         LINE#         619
  C:285BH         LINE#         620
  C:285BH         LINE#         621
  C:2864H         LINE#         622
  C:2866H         LINE#         624
  C:2866H         LINE#         625
  C:287BH         LINE#         626
  C:287BH         LINE#         627
  C:288AH         LINE#         628
  C:288AH         LINE#         629
  C:28A5H         LINE#         630
  C:28A5H         LINE#         632
BL51 BANKED LINKER/LOCATER V6.22                                                      02/03/2015  17:48:48  PAGE 47


  C:28B5H         LINE#         633
  C:28B5H         LINE#         635
  C:28C4H         LINE#         636
  C:28DAH         LINE#         637
  C:28DAH         LINE#         638
  C:28E3H         LINE#         639
  C:28E3H         LINE#         641
  C:28E3H         LINE#         642
  C:28F8H         LINE#         643
  C:28F8H         LINE#         644
  C:2906H         LINE#         645
  C:2906H         LINE#         646
  C:2921H         LINE#         647
  C:2921H         LINE#         649
  C:2931H         LINE#         650
  C:2931H         LINE#         653
  C:2931H         LINE#         654
  C:2931H         LINE#         655
  C:2931H         LINE#         657
  C:2931H         LINE#         659
  C:2948H         LINE#         660
  C:2948H         LINE#         661
  C:2948H         LINE#         662
  C:294AH         LINE#         663
  C:294CH         LINE#         664
  C:294EH         LINE#         665
  C:2950H         LINE#         666
  C:2959H         LINE#         667
  C:295BH         LINE#         668
  C:295DH         LINE#         669
  C:295FH         LINE#         670
  C:2961H         LINE#         672
  C:2963H         LINE#         673
  C:2963H         LINE#         674
  C:2963H         LINE#         675
  -------         ENDPROC       VBITRAMAREATEST
  -------         ENDMOD        SCUFRAME

  -------         MODULE        OTPFRAME
  C:0000H         SYMBOL        _ICE_DUMMY_
  D:0090H         PUBLIC        SCUOSCCTRL
  C:5FF0H         PUBLIC        vOtpVerify
  -------         PROC          VOTPVERIFY
  -------         DO            
  X:0004H         SYMBOL        Add
  X:0006H         SYMBOL        CRC1
  X:0008H         SYMBOL        CRC2
  X:000AH         SYMBOL        i
  -------         DO            
  X:000BH         SYMBOL        i
  -------         ENDDO         
  -------         ENDDO         
  C:5FF0H         LINE#         10
  C:5FF0H         LINE#         11
  C:5FF0H         LINE#         12
  C:5FF7H         LINE#         14
  C:5FFBH         LINE#         15
BL51 BANKED LINKER/LOCATER V6.22                                                      02/03/2015  17:48:48  PAGE 48


  C:6019H         LINE#         16
  C:6026H         LINE#         17
  C:6026H         LINE#         18
  C:6026H         LINE#         19
  C:6038H         LINE#         20
  C:6051H         LINE#         21
  C:6054H         LINE#         22
  C:6054H         LINE#         24
  C:6065H         LINE#         26
  C:6065H         LINE#         27
  C:6076H         LINE#         28
  C:6076H         LINE#         29
  C:6083H         LINE#         34
  C:6099H         LINE#         35
  C:60B1H         LINE#         37
  C:6110H         LINE#         38
  C:6118H         LINE#         39
  C:6126H         LINE#         40
  C:6129H         LINE#         41
  C:6130H         LINE#         42
  C:6141H         LINE#         44
  C:6151H         LINE#         45
  C:6154H         LINE#         46
  C:6154H         LINE#         49
  C:6165H         LINE#         51
  C:616FH         LINE#         53
  C:6182H         LINE#         54
  C:618CH         LINE#         56
  C:619FH         LINE#         58
  C:61B5H         LINE#         59
  C:61CEH         LINE#         60
  C:61CEH         LINE#         61
  C:61DEH         LINE#         62
  C:61E0H         LINE#         64
  C:61E0H         LINE#         66
  C:6205H         LINE#         67
  C:6205H         LINE#         68
  C:620FH         LINE#         69
  C:6222H         LINE#         70
  C:622CH         LINE#         71
  C:623FH         LINE#         72
  C:6255H         LINE#         73
  C:626EH         LINE#         74
  C:626EH         LINE#         75
  C:627EH         LINE#         76
  C:6280H         LINE#         78
  C:6280H         LINE#         80
  C:62A5H         LINE#         81
  C:62A5H         LINE#         84
  C:62A5H         LINE#         85
  C:62A5H         LINE#         86
  -------         ENDPROC       VOTPVERIFY
  -------         ENDMOD        OTPFRAME

  -------         MODULE        TBCFRAME
  C:0000H         SYMBOL        _ICE_DUMMY_
  D:0090H         PUBLIC        SCUOSCCTRL
BL51 BANKED LINKER/LOCATER V6.22                                                      02/03/2015  17:48:48  PAGE 49


  C:0026H         PUBLIC        vTbcVerify
  X:0108H         PUBLIC        _TBC_FLAG_
  D:00DEH         PUBLIC        TBCDR0
  D:00DDH         PUBLIC        TBCDR1
  D:00DCH         PUBLIC        TBCDR2
  D:00DBH         PUBLIC        TBCDR3
  D:0098H         PUBLIC        SCUIE0
  D:0087H         PUBLIC        PCON
  D:0096H         PUBLIC        SCUWE0
  D:00DFH         PUBLIC        TBCINTSTS
  D:0091H         PUBLIC        SCUMCG
  D:00DAH         PUBLIC        TBCSTART
  D:00D9H         PUBLIC        TBCADJH
  D:00D8H         PUBLIC        TBCADJL
  -------         PROC          VTBCVERIFY
  -------         DO            
  X:0004H         SYMBOL        i
  X:0006H         SYMBOL        j
  -------         ENDDO         
  C:0026H         LINE#         8
  C:0026H         LINE#         9
  C:0026H         LINE#         11
  C:0044H         LINE#         12
  C:0047H         LINE#         13
  C:0070H         LINE#         14
  C:0070H         LINE#         15
  C:0070H         LINE#         16
  C:00A6H         LINE#         17
  C:00DCH         LINE#         18
  C:0112H         LINE#         19
  C:0148H         LINE#         20
  C:017EH         LINE#         21
  C:01B4H         LINE#         22
  C:01EAH         LINE#         23
  C:021EH         LINE#         25
  C:0221H         LINE#         26
  C:0221H         LINE#         27
  C:02FCH         LINE#         28
  C:03D7H         LINE#         29
  C:04B2H         LINE#         30
  C:058DH         LINE#         31
  C:0668H         LINE#         32
  C:0743H         LINE#         33
  C:081EH         LINE#         34
  C:08FAH         LINE#         36
  C:08FDH         LINE#         37
  C:08FDH         LINE#         38
  C:0900H         LINE#         39
  C:0903H         LINE#         40
  C:090AH         LINE#         41
  C:090AH         LINE#         42
  C:0910H         LINE#         43
  C:0912H         LINE#         44
  C:0916H         LINE#         45
  C:0916H         LINE#         46
  C:091CH         LINE#         47
  C:091EH         LINE#         48
BL51 BANKED LINKER/LOCATER V6.22                                                      02/03/2015  17:48:48  PAGE 50


  C:0922H         LINE#         49
  C:0922H         LINE#         50
  C:0928H         LINE#         51
  C:092AH         LINE#         53
  C:092AH         LINE#         54
  C:0930H         LINE#         55
  C:0930H         LINE#         57
  C:0933H         LINE#         59
  C:0933H         LINE#         60
  C:0933H         LINE#         62
  C:0936H         LINE#         63
  C:0939H         LINE#         64
  C:093FH         LINE#         65
  C:09ACH         LINE#         66
  C:09C9H         LINE#         67
  C:09CCH         LINE#         69
  C:09CCH         LINE#         70
  C:09CCH         LINE#         72
  C:09CFH         LINE#         73
  C:09D5H         LINE#         74
  C:09D5H         LINE#         75
  C:09ECH         LINE#         76
  C:09ECH         LINE#         77
  C:09FDH         LINE#         78
  C:0A08H         LINE#         81
  C:0A17H         LINE#         82
  C:0A26H         LINE#         83
  C:0A36H         LINE#         84
  C:0A36H         LINE#         86
  C:0A36H         LINE#         87
  C:0A4EH         LINE#         88
  C:0A4EH         LINE#         89
  C:0A5FH         LINE#         90
  C:0A72H         LINE#         91
  C:0A75H         LINE#         94
  C:0A84H         LINE#         95
  C:0A93H         LINE#         96
  C:0A9DH         LINE#         97
  C:0AAAH         LINE#         98
  C:0AAAH         LINE#         99
  C:0AAAH         LINE#         100
  C:0AAAH         LINE#         101
  C:0AADH         LINE#         102
  C:0AB4H         LINE#         103
  C:0AB4H         LINE#         104
  C:0AB7H         LINE#         105
  C:0ABAH         LINE#         106
  C:0ABCH         LINE#         108
  C:0ABCH         LINE#         109
  C:0ABFH         LINE#         110
  C:0AC2H         LINE#         112
  C:0AC2H         LINE#         113
  C:0AD1H         LINE#         114
  C:0AE0H         LINE#         116
  C:0AE3H         LINE#         120
  C:0AE3H         LINE#         121
  C:0AE3H         LINE#         122
BL51 BANKED LINKER/LOCATER V6.22                                                      02/03/2015  17:48:48  PAGE 51


  C:0AE6H         LINE#         124
  C:0B53H         LINE#         126
  C:0B56H         LINE#         127
  C:0BC3H         LINE#         128
  C:0BC6H         LINE#         129
  C:0BC6H         LINE#         130
  C:0BC6H         LINE#         131
  C:0BC9H         LINE#         132
  C:0BCFH         LINE#         133
  C:0BD6H         LINE#         137
  C:0BECH         LINE#         138
  C:0C59H         LINE#         139
  C:0C5CH         LINE#         140
  C:0CC9H         LINE#         141
  C:0CC9H         LINE#         150
  C:0CDCH         LINE#         151
  C:0CDCH         LINE#         152
  C:0CDCH         LINE#         153
  C:0CE6H         LINE#         154
  C:0CE8H         LINE#         155
  C:0CE8H         LINE#         156
  C:0CF2H         LINE#         157
  C:0CF4H         LINE#         158
  C:0CF4H         LINE#         159
  C:0CFEH         LINE#         160
  C:0D00H         LINE#         161
  C:0D00H         LINE#         162
  C:0D0AH         LINE#         163
  C:0D0AH         LINE#         164
  C:0D0AH         LINE#         165
  C:0D0AH         LINE#         166
  C:0D0AH         LINE#         167
  C:0D15H         LINE#         169
  C:0D18H         LINE#         170
  C:0D2EH         LINE#         171
  C:0D9BH         LINE#         172
  C:0D9EH         LINE#         173
  C:0E0BH         LINE#         175
  C:0E1AH         LINE#         176
  C:0E1DH         LINE#         177
  C:0E1DH         LINE#         179
  C:0E1DH         LINE#         180
  C:0E20H         LINE#         181
  C:0E26H         LINE#         182
  C:0E2DH         LINE#         185
  C:0E3EH         LINE#         186
  C:0E54H         LINE#         187
  C:0E54H         LINE#         188
  C:0E64H         LINE#         197
  C:0E66H         LINE#         198
  C:0E66H         LINE#         199
  C:0E66H         LINE#         200
  -------         ENDPROC       VTBCVERIFY
  -------         ENDMOD        TBCFRAME

  -------         MODULE        LCDFRAME
  C:0000H         SYMBOL        _ICE_DUMMY_
BL51 BANKED LINKER/LOCATER V6.22                                                      02/03/2015  17:48:48  PAGE 52


  C:7684H         PUBLIC        vLcdVerify
  X:0119H         PUBLIC        _LCD_FLAG_
  C:89C9H         PUBLIC        _vTimer_Counter_Disp
  C:89FEH         PUBLIC        _vFloat_Disp
  -------         PROC          _VTIMER_COUNTER_DISP
  D:0004H         SYMBOL        Time
  C:89C9H         LINE#         13
  C:89C9H         LINE#         14
  C:89C9H         LINE#         15
  C:89E4H         LINE#         17
  C:89E9H         LINE#         19
  C:89ECH         LINE#         20
  C:89F7H         LINE#         22
  C:89FDH         LINE#         25
  -------         ENDPROC       _VTIMER_COUNTER_DISP
  -------         PROC          _VFLOAT_DISP
  D:0004H         SYMBOL        Count
  C:89FEH         LINE#         27
  C:89FEH         LINE#         28
  C:89FEH         LINE#         29
  C:8A19H         LINE#         32
  C:8A1EH         LINE#         34
  C:8A21H         LINE#         35
  C:8A2CH         LINE#         37
  C:8A32H         LINE#         40
  -------         ENDPROC       _VFLOAT_DISP
  -------         PROC          VLCDVERIFY
  -------         DO            
  X:0004H         SYMBOL        i
  -------         ENDDO         
  C:7684H         LINE#         44
  C:7684H         LINE#         45
  C:7684H         LINE#         49
  C:76A2H         LINE#         50
  C:76ACH         LINE#         51
  C:76B9H         LINE#         52
  C:76B9H         LINE#         53
  C:76D2H         LINE#         54
  C:76D5H         LINE#         56
  C:76DAH         LINE#         58
  C:76E5H         LINE#         60
  C:76EBH         LINE#         62
  C:76F2H         LINE#         63
  C:76F9H         LINE#         64
  C:76FCH         LINE#         66
  C:7701H         LINE#         68
  C:770CH         LINE#         71
  C:7712H         LINE#         73
  C:7719H         LINE#         74
  C:7720H         LINE#         77
  C:7725H         LINE#         79
  C:7730H         LINE#         82
  C:7736H         LINE#         84
  C:773DH         LINE#         85
  C:7744H         LINE#         87
  C:7747H         LINE#         89
  -------         ENDPROC       VLCDVERIFY
BL51 BANKED LINKER/LOCATER V6.22                                                      02/03/2015  17:48:48  PAGE 53


  -------         ENDMOD        LCDFRAME

  -------         MODULE        WDTFRAME
  C:0000H         SYMBOL        _ICE_DUMMY_
  B:00A8H.7       PUBLIC        EA
  C:717FH         PUBLIC        vWdtVerify
  X:011AH         PUBLIC        _WDT_FLAG_
  D:0099H         PUBLIC        SCUIE1
  D:0087H         PUBLIC        PCON
  D:0097H         PUBLIC        SCUWE1
  D:0091H         PUBLIC        SCUMCG
  B:00A8H.0       PUBLIC        EX0
  D:00E5H         PUBLIC        WDTMOD
  D:00E4H         PUBLIC        WDTCON
  D:00E6H         PUBLIC        WDTINTSTS
  -------         PROC          VWDTVERIFY
  C:717FH         LINE#         5
  C:717FH         LINE#         6
  C:717FH         LINE#         7
  C:719DH         LINE#         8
  C:71ADH         LINE#         9
  C:71ADH         LINE#         10
  C:71ADH         LINE#         11
  C:71E3H         LINE#         12
  C:721BH         LINE#         13
  C:7251H         LINE#         14
  C:7253H         LINE#         15
  C:7253H         LINE#         16
  C:7258H         LINE#         17
  C:725BH         LINE#         18
  C:725EH         LINE#         19
  C:7265H         LINE#         20
  C:7265H         LINE#         21
  C:7267H         LINE#         22
  C:7269H         LINE#         23
  C:7270H         LINE#         24
  C:7270H         LINE#         25
  C:7272H         LINE#         26
  C:7274H         LINE#         27
  C:727BH         LINE#         28
  C:727BH         LINE#         29
  C:727DH         LINE#         30
  C:727FH         LINE#         32
  C:727FH         LINE#         33
  C:7284H         LINE#         34
  C:7284H         LINE#         35
  C:7286H         LINE#         36
  C:7288H         LINE#         38
  C:728EH         LINE#         40
  C:7295H         LINE#         41
  C:7298H         LINE#         42
  C:729BH         LINE#         43
  C:72A0H         LINE#         44
  C:72A0H         LINE#         45
  C:72A0H         LINE#         46
  C:72A0H         LINE#         48
  C:72A0H         LINE#         49
BL51 BANKED LINKER/LOCATER V6.22                                                      02/03/2015  17:48:48  PAGE 54


  -------         ENDPROC       VWDTVERIFY
  -------         ENDMOD        WDTFRAME

  -------         MODULE        RNGFRAME
  C:0000H         SYMBOL        _ICE_DUMMY_
  C:7A48H         PUBLIC        vRngVerify
  X:011BH         PUBLIC        _RNG_FLAG_
  -------         PROC          VRNGVERIFY
  -------         DO            
  X:0004H         SYMBOL        rngMode
  -------         DO            
  X:0005H         SYMBOL        i
  -------         ENDDO         
  -------         ENDDO         
  C:7A48H         LINE#         5
  C:7A48H         LINE#         6
  C:7A48H         LINE#         9
  C:7A48H         LINE#         10
  C:7A5AH         LINE#         11
  C:7A5AH         LINE#         12
  C:7A62H         LINE#         13
  C:7A6FH         LINE#         14
  C:7A72H         LINE#         15
  C:7A83H         LINE#         17
  C:7AE2H         LINE#         19
  C:7AE9H         LINE#         21
  C:7AF2H         LINE#         22
  C:7AF2H         LINE#         24
  -------         ENDPROC       VRNGVERIFY
  -------         ENDMOD        RNGFRAME

  -------         MODULE        ADCFRAME
  C:0000H         SYMBOL        _ICE_DUMMY_
  D:0090H         PUBLIC        SCUOSCCTRL
  C:62B6H         PUBLIC        vAdcVerify
  -------         PROC          VADCVERIFY
  -------         DO            
  X:0004H         SYMBOL        i
  X:0005H         SYMBOL        TmpVal
  X:0007H         SYMBOL        ADJVAL
  X:0009H         SYMBOL        Tmp
  -------         ENDDO         
  C:62B6H         LINE#         23
  C:62B6H         LINE#         24
  C:62B6H         LINE#         26
  C:62BCH         LINE#         29
  C:62DAH         LINE#         30
  C:62F6H         LINE#         31
  C:62F6H         LINE#         32
  C:62F6H         LINE#         33
  C:62F8H         LINE#         34
  C:62FAH         LINE#         35
  C:62FAH         LINE#         36
  C:62FFH         LINE#         38
  C:6306H         LINE#         39
  C:6309H         LINE#         40
  C:6309H         LINE#         41
BL51 BANKED LINKER/LOCATER V6.22                                                      02/03/2015  17:48:48  PAGE 55


  C:630EH         LINE#         42
  C:6311H         LINE#         43
  C:6311H         LINE#         44
  C:6316H         LINE#         46
  C:631DH         LINE#         47
  C:631DH         LINE#         48
  C:6328H         LINE#         49
  C:6333H         LINE#         51
  C:634BH         LINE#         53
  C:6355H         LINE#         55
  C:6368H         LINE#         56
  C:6380H         LINE#         58
  C:63CEH         LINE#         62
  C:63EBH         LINE#         64
  C:63EEH         LINE#         65
  C:63EEH         LINE#         66
  C:63EEH         LINE#         67
  C:63F3H         LINE#         68
  C:63F3H         LINE#         70
  C:63FEH         LINE#         73
  C:6414H         LINE#         74
  C:642CH         LINE#         75
  C:643DH         LINE#         76
  C:644EH         LINE#         79
  C:6450H         LINE#         80
  C:6450H         LINE#         82
  C:6450H         LINE#         87
  C:6450H         LINE#         88
  C:645BH         LINE#         89
  C:6460H         LINE#         90
  C:646BH         LINE#         93
  C:6481H         LINE#         94
  C:6499H         LINE#         95
  C:64AAH         LINE#         96
  C:64BBH         LINE#         98
  C:64BEH         LINE#         99
  C:64C0H         LINE#         100
  C:64C0H         LINE#         102
  C:64C0H         LINE#         103
  C:64C0H         LINE#         105
  C:64CBH         LINE#         109
  C:64DCH         LINE#         110
  C:64E6H         LINE#         112
  C:64E9H         LINE#         116
  -------         ENDPROC       VADCVERIFY
  -------         ENDMOD        ADCFRAME

  -------         MODULE        IOMFRAME
  C:0000H         SYMBOL        _ICE_DUMMY_
  B:00A8H.7       PUBLIC        EA
  D:00C2H         PUBLIC        IOMP0PU
  D:00CAH         PUBLIC        IOMP1PU
  C:6AACH         PUBLIC        KeyTable
  C:3CBFH         PUBLIC        vIomVerify
  B:00A8H.4       PUBLIC        ES
  X:00F9H         PUBLIC        _IOM_FLAG_
  D:00C7H         PUBLIC        IOMP0DOUT
BL51 BANKED LINKER/LOCATER V6.22                                                      02/03/2015  17:48:48  PAGE 56


  D:00CFH         PUBLIC        IOMP1DOUT
  C:6DABH         PUBLIC        ucGetKeyValue
  D:0098H         PUBLIC        SCUIE0
  D:0087H         PUBLIC        PCON
  D:00B3H         PUBLIC        TM0CON
  D:009AH         PUBLIC        SCUIS0
  D:0096H         PUBLIC        SCUWE0
  D:00C6H         PUBLIC        IOMP0DIN
  D:00CEH         PUBLIC        IOMP1DIN
  D:0091H         PUBLIC        SCUMCG
  D:00C1H         PUBLIC        IOMP0DIR
  D:00C9H         PUBLIC        IOMP1DIR
  C:8D58H         PUBLIC        vKeboardInit
  C:8D1EH         PUBLIC        vKeyboardTest
  D:00C8H         PUBLIC        IOMP0ISR
  D:00BCH         PUBLIC        IOMP1ISR
  X:00FAH         PUBLIC        _KBC_INT_FLAG_
  D:00C4H         PUBLIC        IOMP0INTS1
  D:00CCH         PUBLIC        IOMP1INTS1
  D:00C5H         PUBLIC        IOMP0INTS2
  D:00CDH         PUBLIC        IOMP1INTS2
  D:00C3H         PUBLIC        IOMP0PD
  D:00C0H         PUBLIC        IOMCR
  D:00CBH         PUBLIC        IOMP1PD
  -------         PROC          VKEBOARDINIT
  C:8D58H         LINE#         22
  C:8D58H         LINE#         23
  C:8D58H         LINE#         24
  C:8D5BH         LINE#         25
  C:8D5EH         LINE#         26
  C:8D61H         LINE#         28
  C:8D64H         LINE#         30
  C:8D67H         LINE#         32
  C:8D6AH         LINE#         33
  C:8D6DH         LINE#         34
  C:8D6FH         LINE#         35
  C:8D71H         LINE#         36
  -------         ENDPROC       VKEBOARDINIT
  -------         PROC          UCGETKEYVALUE
  -------         DO            
  X:00F5H         SYMBOL        KEY_STAT
  X:00F6H         SYMBOL        KeyTmp
  X:000EH         SYMBOL        i
  -------         ENDDO         
  C:6DABH         LINE#         39
  C:6DABH         LINE#         40
  C:6DABH         LINE#         43
  C:6DB6H         LINE#         44
  C:6DB6H         LINE#         46
  C:6DB7H         LINE#         48
  C:6DBDH         LINE#         49
  C:6DBDH         LINE#         50
  C:6DCDH         LINE#         51
  C:6DD7H         LINE#         52
  C:6DDCH         LINE#         53
  C:6DE2H         LINE#         54
  C:6DE2H         LINE#         56
BL51 BANKED LINKER/LOCATER V6.22                                                      02/03/2015  17:48:48  PAGE 57


  C:6DE8H         LINE#         57
  C:6DEBH         LINE#         58
  C:6DEEH         LINE#         60
  C:6DF1H         LINE#         61
  C:6DF4H         LINE#         63
  C:6DF7H         LINE#         64
  C:6DFAH         LINE#         66
  C:6DFDH         LINE#         68
  C:6DFDH         LINE#         69
  C:6E00H         LINE#         70
  C:6E00H         LINE#         72
  C:6E03H         LINE#         73
  C:6E0EH         LINE#         74
  C:6E0EH         LINE#         75
  C:6E10H         LINE#         76
  C:6E1AH         LINE#         77
  C:6E1FH         LINE#         80
  C:6E22H         LINE#         81
  C:6E25H         LINE#         82
  C:6E27H         LINE#         84
  C:6E2AH         LINE#         86
  C:6E2EH         LINE#         89
  C:6E3DH         LINE#         90
  C:6E3DH         LINE#         91
  C:6E41H         LINE#         92
  C:6E52H         LINE#         93
  C:6E52H         LINE#         94
  C:6E63H         LINE#         95
  C:6E63H         LINE#         96
  C:6E6CH         LINE#         97
  C:6E6CH         LINE#         98
  C:6E74H         LINE#         100
  C:6E74H         LINE#         102
  C:6E74H         LINE#         103
  C:6E7BH         LINE#         104
  C:6E89H         LINE#         105
  C:6E89H         LINE#         106
  C:6E9AH         LINE#         107
  C:6E9AH         LINE#         108
  C:6EA2H         LINE#         109
  C:6EA2H         LINE#         110
  C:6EAAH         LINE#         111
  C:6EAAH         LINE#         113
  C:6EAAH         LINE#         115
  C:6EAAH         LINE#         116
  C:6EAFH         LINE#         117
  C:6EB2H         LINE#         118
  C:6EB5H         LINE#         119
  C:6EB7H         LINE#         121
  C:6EBAH         LINE#         122
  C:6EBCH         LINE#         124
  C:6EBFH         LINE#         125
  C:6EC2H         LINE#         126
  C:6EC2H         LINE#         128
  C:6EC2H         LINE#         130
  C:6EC2H         LINE#         132
  C:6ED2H         LINE#         133
BL51 BANKED LINKER/LOCATER V6.22                                                      02/03/2015  17:48:48  PAGE 58


  C:6ED2H         LINE#         135
  C:6ED4H         LINE#         137
  C:6ED7H         LINE#         138
  C:6EDBH         LINE#         139
  C:6EDFH         LINE#         140
  C:6EE1H         LINE#         142
  C:6EE4H         LINE#         143
  C:6EE7H         LINE#         144
  C:6EE7H         LINE#         146
  C:6EEBH         LINE#         147
  C:6EF1H         LINE#         149
  C:6EF4H         LINE#         150
  C:6EF4H         LINE#         151
  C:6EF6H         LINE#         153
  -------         ENDPROC       UCGETKEYVALUE
  -------         PROC          VKEYBOARDTEST
  -------         DO            
  X:011CH         SYMBOL        TmpData
  -------         ENDDO         
  C:8D1EH         LINE#         155
  C:8D1EH         LINE#         156
  C:8D1EH         LINE#         158
  C:8D21H         LINE#         159
  C:8D21H         LINE#         160
  C:8D21H         LINE#         163
  C:8D29H         LINE#         164
  C:8D2CH         LINE#         165
  C:8D2CH         LINE#         166
  C:8D3AH         LINE#         167
  -------         ENDPROC       VKEYBOARDTEST
  -------         PROC          VIOMVERIFY
  -------         DO            
  X:0004H         SYMBOL        TmpData
  -------         ENDDO         
  C:3CBFH         LINE#         178
  C:3CBFH         LINE#         179
  C:3CBFH         LINE#         181
  C:3CDDH         LINE#         182
  C:3CE0H         LINE#         183
  C:3CFDH         LINE#         184
  C:3CFDH         LINE#         185
  C:3CFDH         LINE#         186
  C:3D33H         LINE#         187
  C:3D69H         LINE#         188
  C:3D9FH         LINE#         189
  C:3DD5H         LINE#         190
  C:3E0BH         LINE#         191
  C:3E41H         LINE#         193
  C:3E77H         LINE#         194
  C:3EADH         LINE#         195
  C:3EE3H         LINE#         196
  C:3F19H         LINE#         197
  C:3F4FH         LINE#         198
  C:3F85H         LINE#         200
  C:3FBBH         LINE#         201
  C:3FF1H         LINE#         202
  C:4027H         LINE#         203
BL51 BANKED LINKER/LOCATER V6.22                                                      02/03/2015  17:48:48  PAGE 59


  C:405DH         LINE#         204
  C:4093H         LINE#         205
  C:40C7H         LINE#         206
  C:40CAH         LINE#         207
  C:40CAH         LINE#         210
  C:40CDH         LINE#         211
  C:40D0H         LINE#         212
  C:40D0H         LINE#         213
  C:40D3H         LINE#         214
  C:40D3H         LINE#         215
  C:40D3H         LINE#         216
  C:40DBH         LINE#         217
  C:40DEH         LINE#         218
  C:40DEH         LINE#         219
  C:40ECH         LINE#         220
  C:40ECH         LINE#         221
  C:40F3H         LINE#         222
  C:40F3H         LINE#         223
  C:40F6H         LINE#         224
  C:40F6H         LINE#         226
  C:40F6H         LINE#         227
  C:40F6H         LINE#         228
  C:40FDH         LINE#         229
  C:4104H         LINE#         230
  C:410BH         LINE#         231
  C:4112H         LINE#         232
  C:4119H         LINE#         233
  C:4120H         LINE#         235
  C:4127H         LINE#         236
  C:412EH         LINE#         237
  C:4135H         LINE#         238
  C:413CH         LINE#         239
  C:4143H         LINE#         240
  C:414AH         LINE#         241
  C:4151H         LINE#         242
  C:4158H         LINE#         244
  C:415FH         LINE#         245
  C:4166H         LINE#         246
  C:416DH         LINE#         247
  C:4174H         LINE#         248
  C:417BH         LINE#         249
  C:4182H         LINE#         250
  C:4189H         LINE#         251
  C:4190H         LINE#         252
  C:4197H         LINE#         254
  C:4197H         LINE#         255
  C:4197H         LINE#         256
  C:41A6H         LINE#         257
  C:41ACH         LINE#         258
  C:41ACH         LINE#         259
  C:41AFH         LINE#         260
  C:41B2H         LINE#         261
  C:41B5H         LINE#         262
  C:41BCH         LINE#         263
  C:41C3H         LINE#         264
  C:41CAH         LINE#         265
  C:41D1H         LINE#         266
BL51 BANKED LINKER/LOCATER V6.22                                                      02/03/2015  17:48:48  PAGE 60


  C:41D8H         LINE#         267
  C:41DFH         LINE#         268
  C:41E6H         LINE#         269
  C:41EDH         LINE#         270
  C:41F4H         LINE#         271
  C:420BH         LINE#         272
  C:420BH         LINE#         273
  C:420EH         LINE#         274
  C:4211H         LINE#         275
  C:421AH         LINE#         276
  C:421CH         LINE#         277
  C:421CH         LINE#         279
  C:421CH         LINE#         280
  C:422BH         LINE#         281
  C:423AH         LINE#         283
  C:4243H         LINE#         284
  C:4243H         LINE#         286
  C:4243H         LINE#         287
  C:4246H         LINE#         289
  C:4246H         LINE#         290
  C:4246H         LINE#         291
  C:4246H         LINE#         292
  C:4246H         LINE#         293
  -------         ENDPROC       VIOMVERIFY
  -------         ENDMOD        IOMFRAME

  -------         MODULE        UARTFRAME
  C:0000H         SYMBOL        _ICE_DUMMY_
  X:0074H         PUBLIC        g_UART_BUF_LEN
  X:0075H         PUBLIC        g_UART_COM_BUF
  X:00B5H         PUBLIC        g_UART_RECEIVE_OK
  -------         ENDMOD        UARTFRAME

  -------         MODULE        TIMERFRAME
  C:0000H         SYMBOL        _ICE_DUMMY_
  D:00C7H         PUBLIC        IOMP0DOUT
  D:00B0H         PUBLIC        TM0CDATA
  D:00B1H         PUBLIC        TM1CDATA
  D:00A0H         PUBLIC        TM2CDATA
  D:00B3H         PUBLIC        TM0CON
  D:00A1H         PUBLIC        TM3CDATA
  D:00B4H         PUBLIC        TM1CON
  D:00B2H         PUBLIC        TM1MOD
  D:00A3H         PUBLIC        TM2CON
  D:00A2H         PUBLIC        TM2MOD
  D:00A4H         PUBLIC        TM3CON
  D:00B5H         PUBLIC        TM1INTSTS
  D:00A5H         PUBLIC        TM2INTSTS
  X:0116H         PUBLIC        _TIMER_FLAG_
  D:0091H         PUBLIC        SCUMCG
  C:0E77H         PUBLIC        vTimerVerify
  -------         PROC          VTIMERVERIFY
  C:0E77H         LINE#         8
  C:0E77H         LINE#         9
  C:0E77H         LINE#         10
  C:0E7AH         LINE#         11
  C:0E98H         LINE#         12
BL51 BANKED LINKER/LOCATER V6.22                                                      02/03/2015  17:48:48  PAGE 61


  C:0EC3H         LINE#         13
  C:0EC3H         LINE#         14
  C:0EC3H         LINE#         15
  C:0EF9H         LINE#         16
  C:0F2FH         LINE#         17
  C:0F65H         LINE#         18
  C:0F9BH         LINE#         19
  C:0FD1H         LINE#         20
  C:1007H         LINE#         22
  C:103DH         LINE#         23
  C:1073H         LINE#         24
  C:10A9H         LINE#         25
  C:10DFH         LINE#         26
  C:1115H         LINE#         27
  C:1149H         LINE#         28
  C:114CH         LINE#         29
  C:114CH         LINE#         30
  C:1227H         LINE#         31
  C:1302H         LINE#         32
  C:13DDH         LINE#         33
  C:14B8H         LINE#         34
  C:1593H         LINE#         35
  C:166EH         LINE#         37
  C:1749H         LINE#         38
  C:1824H         LINE#         39
  C:18FFH         LINE#         40
  C:19DAH         LINE#         41
  C:1AB5H         LINE#         42
  C:1B90H         LINE#         43
  C:1B90H         LINE#         44
  C:1B90H         LINE#         46
  C:1BA2H         LINE#         47
  C:1BA2H         LINE#         49
  C:1BA4H         LINE#         50
  C:1BA4H         LINE#         52
  C:1BBAH         LINE#         53
  C:1BBAH         LINE#         55
  C:1BBCH         LINE#         56
  C:1BBCH         LINE#         58
  C:1BCDH         LINE#         59
  C:1BCDH         LINE#         62
  C:1BCFH         LINE#         63
  C:1BCFH         LINE#         65
  C:1BE3H         LINE#         66
  C:1BE3H         LINE#         68
  C:1BE5H         LINE#         69
  C:1BE5H         LINE#         71
  C:1BF8H         LINE#         72
  C:1BFBH         LINE#         76
  C:1BFCH         LINE#         77
  C:1BFCH         LINE#         79
  C:1C12H         LINE#         80
  C:1C15H         LINE#         84
  C:1C15H         LINE#         86
  C:1C15H         LINE#         92
  C:1C15H         LINE#         93
  C:1C15H         LINE#         95
BL51 BANKED LINKER/LOCATER V6.22                                                      02/03/2015  17:48:48  PAGE 62


  -------         ENDPROC       VTIMERVERIFY
  -------         ENDMOD        TIMERFRAME

  -------         MODULE        SM3FRAME
  C:0000H         SYMBOL        _ICE_DUMMY_
  -------         ENDMOD        SM3FRAME

  -------         MODULE        TOKENAPP
  C:0000H         SYMBOL        _ICE_DUMMY_
  I:0060H         PUBLIC        gPin_Save
  B:00A8H.7       PUBLIC        EA
  D:0090H         PUBLIC        SCUOSCCTRL
  C:83C7H         SYMBOL        vFlag1S_DispClr
  D:0094H         PUBLIC        SCUSO
  X:00B6H         PUBLIC        gErr
  I:0031H         PUBLIC        gUseCase
  C:4BD4H         PUBLIC        vToken_InputPin
  I:0040H         PUBLIC        gUserInfo
  D:009DH         PUBLIC        SCURNGC
  B:00A8H.4       PUBLIC        ES
  X:00BEH         PUBLIC        gUnlockPinErr_Count
  C:7041H         PUBLIC        _DynPassWord_SM3
  C:4257H         PUBLIC        vToken_RunMode
  X:00BFH         PUBLIC        gPin_Key
  C:781EH         PUBLIC        vTokenApp
  D:00D5H         PUBLIC        UARTCON
  D:00DEH         PUBLIC        TBCDR0
  D:00DDH         PUBLIC        TBCDR1
  D:00DCH         PUBLIC        TBCDR2
  D:00DBH         PUBLIC        TBCDR3
  X:00C7H         PUBLIC        gSecCount_10S
  C:8AF7H         PUBLIC        vToken_Invalid
  I:003EH         PUBLIC        gPinErr_Count
  D:0098H         PUBLIC        SCUIE0
  I:003AH         PUBLIC        gPinErr_Time
  C:73C5H         PUBLIC        _MessageExpand
  I:0068H         PUBLIC        KeySeed
  X:00C8H         PUBLIC        bCloseLCD
  D:0087H         PUBLIC        PCON
  C:530BH         PUBLIC        vToken_SetPin
  X:00C9H         PUBLIC        bAlwaysbdisplay
  I:0032H         PUBLIC        gTimer_Count_Base
  X:0BA0H         PUBLIC        MessBuf
  D:0096H         PUBLIC        SCUWE0
  C:59F4H         PUBLIC        vToken_Active
  D:00DFH         PUBLIC        TBCINTSTS
  C:8504H         SYMBOL        _?ix1000
  D:0091H         PUBLIC        SCUMCG
  X:00CAH         PUBLIC        gCursor_Flag
  I:0030H         PUBLIC        gActive
  X:00CBH         PUBLIC        gFlag_1S
  X:00CCH         PUBLIC        BCD
  B:00A8H.1       PUBLIC        ET0
  B:00A8H.3       PUBLIC        ET1
  X:0B80H         PUBLIC        DynBuf
  X:00D6H         PUBLIC        gCursor_Count
  I:0036H         PUBLIC        gTimer_Count
BL51 BANKED LINKER/LOCATER V6.22                                                      02/03/2015  17:48:48  PAGE 63


  C:6ABCH         PUBLIC        vToken_SeedImport
  I:003FH         PUBLIC        gPinErr_6TimeFlag
  X:00D7H         PUBLIC        gEvent
  D:00D9H         PUBLIC        TBCADJH
  C:4F72H         PUBLIC        vToken_UnlockPin
  D:00D8H         PUBLIC        TBCADJL
  X:00DBH         PUBLIC        bOpenHash
  -------         PROC          VTOKENAPP
  C:781EH         LINE#         8
  C:781EH         LINE#         9
  C:781EH         LINE#         10
  C:7834H         LINE#         12
  C:7837H         LINE#         14
  C:783EH         LINE#         15
  C:7845H         LINE#         17
  C:784EH         LINE#         19
  C:7853H         LINE#         21
  C:7856H         LINE#         22
  C:7859H         LINE#         23
  C:7860H         LINE#         24
  C:7867H         LINE#         26
  C:7872H         LINE#         28
  C:787EH         LINE#         29
  C:787EH         LINE#         30
  C:7882H         LINE#         31
  C:7882H         LINE#         33
  C:7885H         LINE#         34
  C:7888H         LINE#         35
  C:788AH         LINE#         36
  C:788CH         LINE#         39
  C:7892H         LINE#         40
  C:7892H         LINE#         41
  C:7892H         LINE#         42
  C:78B9H         LINE#         43
  C:78B9H         LINE#         44
  C:78B9H         LINE#         45
  C:78BCH         LINE#         46
  C:78BEH         LINE#         47
  C:78BEH         LINE#         48
  C:78C1H         LINE#         49
  C:78C3H         LINE#         50
  C:78C3H         LINE#         51
  C:78C6H         LINE#         52
  C:78C8H         LINE#         53
  C:78C8H         LINE#         54
  C:78CBH         LINE#         55
  C:78CDH         LINE#         56
  C:78CDH         LINE#         57
  C:78D0H         LINE#         58
  C:78D2H         LINE#         59
  C:78D2H         LINE#         60
  C:78D5H         LINE#         61
  C:78D7H         LINE#         62
  C:78D7H         LINE#         63
  C:78DAH         LINE#         64
  C:78DCH         LINE#         65
  C:78DCH         LINE#         67
BL51 BANKED LINKER/LOCATER V6.22                                                      02/03/2015  17:48:48  PAGE 64


  C:78DFH         LINE#         68
  -------         ENDPROC       VTOKENAPP
  -------         PROC          VFLAG1S_DISPCLR
  C:83C7H         LINE#         75
  C:83C7H         LINE#         76
  C:83C7H         LINE#         78
  C:83CEH         LINE#         79
  C:83CEH         LINE#         81
  C:83D3H         LINE#         83
  C:83D6H         LINE#         85
  C:83D6H         LINE#         87
  C:83D8H         LINE#         88
  C:83DFH         LINE#         89
  C:83DFH         LINE#         91
  C:83E4H         LINE#         93
  C:83E7H         LINE#         95
  C:83E7H         LINE#         97
  C:83E9H         LINE#         98
  C:83F0H         LINE#         99
  C:83F0H         LINE#         101
  C:83F5H         LINE#         103
  C:83F8H         LINE#         105
  C:83F8H         LINE#         107
  C:83FAH         LINE#         108
  C:8401H         LINE#         109
  C:8401H         LINE#         111
  C:8406H         LINE#         113
  C:8409H         LINE#         115
  C:8409H         LINE#         117
  C:840BH         LINE#         118
  C:8412H         LINE#         119
  C:8412H         LINE#         121
  C:8417H         LINE#         123
  C:841DH         LINE#         125
  C:8423H         LINE#         127
  C:8424H         LINE#         128
  C:842BH         LINE#         129
  C:842BH         LINE#         130
  C:842DH         LINE#         134
  C:8433H         LINE#         136
  C:8433H         LINE#         138
  -------         ENDPROC       VFLAG1S_DISPCLR
  -------         PROC          _MESSAGEEXPAND
  X:0006H         SYMBOL        EventLen
  X:0007H         SYMBOL        ChallengeCodeLen
  -------         DO            
  X:0008H         SYMBOL        offset
  -------         ENDDO         
  C:73C5H         LINE#         155
  C:73CDH         LINE#         156
  C:73CDH         LINE#         157
  C:73D0H         LINE#         158
  C:73DDH         LINE#         160
  C:73F0H         LINE#         161
  C:73F6H         LINE#         163
  C:7408H         LINE#         164
  C:7424H         LINE#         165
BL51 BANKED LINKER/LOCATER V6.22                                                      02/03/2015  17:48:48  PAGE 65


  C:742BH         LINE#         167
  C:7432H         LINE#         168
  C:7432H         LINE#         169
  C:744CH         LINE#         170
  C:7457H         LINE#         171
  C:7457H         LINE#         174
  C:745EH         LINE#         175
  C:745EH         LINE#         177
  C:7476H         LINE#         178
  C:747FH         LINE#         180
  C:747FH         LINE#         184
  C:7490H         LINE#         185
  C:7496H         LINE#         186
  C:7496H         LINE#         187
  C:749CH         LINE#         188
  C:74A6H         LINE#         189
  C:74A7H         LINE#         191
  C:74A7H         LINE#         192
  C:74B4H         LINE#         193
  C:74B4H         LINE#         194
  -------         ENDPROC       _MESSAGEEXPAND
  -------         PROC          L?0320
  -------         ENDPROC       L?0320
  -------         PROC          _DYNPASSWORD_SM3
  X:0006H         SYMBOL        DynCode
  -------         DO            
  X:0009H         SYMBOL        p
  D:0004H         SYMBOL        OD
  -------         ENDDO         
  C:7041H         LINE#         204
  C:704CH         LINE#         205
  C:704CH         LINE#         214
  C:704FH         LINE#         222
  C:705BH         LINE#         223
  C:715FH         LINE#         244
  -------         ENDPROC       _DYNPASSWORD_SM3
  -------         PROC          VTOKEN_SEEDIMPORT
  C:6ABCH         LINE#         262
  C:6ABCH         LINE#         263
  C:6ABCH         LINE#         265
  C:6AC1H         LINE#         267
  C:6ACCH         LINE#         269
  C:6AD2H         LINE#         271
  C:6ADAH         LINE#         272
  C:6ADAH         LINE#         273
  C:6AE2H         LINE#         274
  C:6AE2H         LINE#         275
  C:6AE6H         LINE#         276
  C:6AE9H         LINE#         278
  C:6AEDH         LINE#         280
  C:6AF0H         LINE#         281
  C:6AFBH         LINE#         283
  C:6B01H         LINE#         286
  C:6B0AH         LINE#         287
  C:6B10H         LINE#         288
  C:6B13H         LINE#         290
  C:6B16H         LINE#         295
BL51 BANKED LINKER/LOCATER V6.22                                                      02/03/2015  17:48:48  PAGE 66


  C:6B18H         LINE#         296
  C:6B1AH         LINE#         297
  C:6B1AH         LINE#         299
  C:6B25H         LINE#         300
  C:6B2BH         LINE#         304
  C:6B32H         LINE#         305
  C:6B32H         LINE#         307
  C:6B35H         LINE#         308
  C:6B37H         LINE#         310
  C:6BAAH         LINE#         313
  C:6BADH         LINE#         314
  C:6BB4H         LINE#         315
  C:6BB4H         LINE#         316
  C:6BC2H         LINE#         317
  C:6BCBH         LINE#         318
  C:6BCDH         LINE#         320
  C:6BCDH         LINE#         321
  C:6BDBH         LINE#         322
  C:6BE3H         LINE#         324
  C:6BE3H         LINE#         326
  C:6BE6H         LINE#         328
  C:6BEBH         LINE#         330
  C:6BFCH         LINE#         332
  C:6C0FH         LINE#         336
  C:6C14H         LINE#         338
  C:6C17H         LINE#         339
  C:6C22H         LINE#         341
  C:6C28H         LINE#         345
  C:6C2CH         LINE#         346
  C:6C2FH         LINE#         350
  C:6C38H         LINE#         351
  C:6C3EH         LINE#         352
  C:6C41H         LINE#         357
  C:6C43H         LINE#         358
  C:6C45H         LINE#         361
  C:6C48H         LINE#         363
  C:6C48H         LINE#         366
  C:6C4BH         LINE#         367
  C:6C4BH         LINE#         368
  C:6C4EH         LINE#         375
  C:6C51H         LINE#         376
  C:6C54H         LINE#         377
  C:6C56H         LINE#         378
  -------         ENDPROC       VTOKEN_SEEDIMPORT
  -------         PROC          VTOKEN_INPUTPIN
  -------         DO            
  X:0001H         SYMBOL        Key_Input
  X:0002H         SYMBOL        j
  X:0003H         SYMBOL        i
  X:0004H         SYMBOL        bInputPin
  -------         ENDDO         
  C:4BD4H         LINE#         390
  C:4BD4H         LINE#         391
  C:4BD4H         LINE#         392
  C:4BE2H         LINE#         393
  C:4BE5H         LINE#         394
  C:4BEAH         LINE#         395
BL51 BANKED LINKER/LOCATER V6.22                                                      02/03/2015  17:48:48  PAGE 67


  C:4BEEH         LINE#         396
  C:4BF1H         LINE#         399
  C:4BF5H         LINE#         401
  C:4BF8H         LINE#         402
  C:4BFBH         LINE#         403
  C:4C02H         LINE#         404
  C:4C09H         LINE#         405
  C:4C10H         LINE#         406
  C:4C17H         LINE#         407
  C:4C1EH         LINE#         409
  C:4C25H         LINE#         410
  C:4C2CH         LINE#         412
  C:4C32H         LINE#         415
  C:4C35H         LINE#         416
  C:4C3BH         LINE#         417
  C:4C40H         LINE#         419
  C:4C4BH         LINE#         420
  C:4C4BH         LINE#         421
  C:4C53H         LINE#         422
  C:4C64H         LINE#         423
  C:4C64H         LINE#         425
  C:4C69H         LINE#         427
  C:4C6CH         LINE#         428
  C:4C73H         LINE#         429
  C:4C7AH         LINE#         430
  C:4C81H         LINE#         431
  C:4C88H         LINE#         432
  C:4C8FH         LINE#         433
  C:4C96H         LINE#         434
  C:4C9DH         LINE#         437
  C:4CA2H         LINE#         439
  C:4CA8H         LINE#         444
  C:4CCDH         LINE#         445
  C:4CCDH         LINE#         446
  C:4CCDH         LINE#         447
  C:4CCDH         LINE#         448
  C:4CCDH         LINE#         449
  C:4CCDH         LINE#         450
  C:4CCDH         LINE#         451
  C:4CCDH         LINE#         452
  C:4CCDH         LINE#         453
  C:4CCDH         LINE#         454
  C:4CCDH         LINE#         455
  C:4CCDH         LINE#         456
  C:4CD3H         LINE#         457
  C:4CD3H         LINE#         458
  C:4CD5H         LINE#         459
  C:4CF2H         LINE#         461
  C:4CF7H         LINE#         464
  C:4D00H         LINE#         466
  C:4D06H         LINE#         468
  C:4D0BH         LINE#         470
  C:4D0EH         LINE#         472
  C:4D0EH         LINE#         473
  C:4D1BH         LINE#         474
  C:4D1BH         LINE#         477
  C:4D2CH         LINE#         478
BL51 BANKED LINKER/LOCATER V6.22                                                      02/03/2015  17:48:48  PAGE 68


  C:4D32H         LINE#         480
  C:4D37H         LINE#         483
  C:4D45H         LINE#         485
  C:4D45H         LINE#         488
  C:4D45H         LINE#         489
  C:4D45H         LINE#         490
  C:4D48H         LINE#         491
  C:4D48H         LINE#         492
  C:4D4DH         LINE#         493
  C:4D5DH         LINE#         494
  C:4D5DH         LINE#         496
  C:4D62H         LINE#         498
  C:4D65H         LINE#         499
  C:4D6DH         LINE#         501
  C:4D73H         LINE#         503
  C:4D7BH         LINE#         504
  C:4D7BH         LINE#         505
  C:4D7BH         LINE#         506
  C:4D88H         LINE#         507
  C:4D88H         LINE#         508
  C:4D8EH         LINE#         509
  C:4D95H         LINE#         510
  C:4D95H         LINE#         511
  C:4D98H         LINE#         512
  C:4D9AH         LINE#         514
  C:4D9AH         LINE#         515
  C:4DA0H         LINE#         516
  C:4DA0H         LINE#         518
  C:4DA5H         LINE#         521
  C:4DAEH         LINE#         522
  C:4DB7H         LINE#         524
  C:4DB7H         LINE#         526
  C:4DB7H         LINE#         527
  C:4DB9H         LINE#         528
  C:4DB9H         LINE#         529
  C:4DC6H         LINE#         530
  C:4DC6H         LINE#         531
  C:4DCCH         LINE#         532
  C:4DD5H         LINE#         533
  C:4DD5H         LINE#         534
  C:4DD8H         LINE#         535
  C:4DDAH         LINE#         537
  C:4DDAH         LINE#         538
  C:4DDFH         LINE#         539
  C:4DDFH         LINE#         541
  C:4DE4H         LINE#         544
  C:4DF2H         LINE#         545
  C:4DFBH         LINE#         547
  C:4E01H         LINE#         549
  C:4E01H         LINE#         550
  C:4E04H         LINE#         551
  C:4E04H         LINE#         553
  C:4E04H         LINE#         554
  C:4E04H         LINE#         556
  C:4E0FH         LINE#         557
  C:4E0FH         LINE#         559
  C:4E23H         LINE#         560
BL51 BANKED LINKER/LOCATER V6.22                                                      02/03/2015  17:48:48  PAGE 69


  C:4E23H         LINE#         562
  C:4E27H         LINE#         565
  C:4E32H         LINE#         567
  C:4E38H         LINE#         569
  C:4E3DH         LINE#         570
  C:4E4DH         LINE#         571
  C:4E4DH         LINE#         572
  C:4E55H         LINE#         573
  C:4E57H         LINE#         575
  C:4E5BH         LINE#         576
  C:4E60H         LINE#         577
  C:4E63H         LINE#         579
  C:4E63H         LINE#         580
  C:4E72H         LINE#         581
  C:4E72H         LINE#         582
  C:4E75H         LINE#         583
  C:4E7DH         LINE#         584
  C:4E80H         LINE#         587
  C:4E88H         LINE#         590
  C:4E91H         LINE#         591
  C:4E91H         LINE#         592
  C:4E94H         LINE#         594
  C:4EF3H         LINE#         597
  C:4EF8H         LINE#         599
  C:4EFBH         LINE#         600
  C:4F02H         LINE#         603
  C:4F08H         LINE#         606
  C:4F0DH         LINE#         607
  C:4F1DH         LINE#         608
  C:4F1DH         LINE#         609
  C:4F25H         LINE#         610
  C:4F27H         LINE#         611
  C:4F2BH         LINE#         612
  C:4F30H         LINE#         614
  C:4F33H         LINE#         615
  C:4F35H         LINE#         617
  C:4F35H         LINE#         620
  C:4F3AH         LINE#         622
  C:4F3DH         LINE#         624
  C:4F44H         LINE#         625
  C:4F4BH         LINE#         626
  C:4F56H         LINE#         628
  C:4F5CH         LINE#         635
  C:4F5CH         LINE#         636
  C:4F5CH         LINE#         637
  C:4F61H         LINE#         638
  C:4F65H         LINE#         639
  C:4F65H         LINE#         640
  C:4F68H         LINE#         641
  C:4F68H         LINE#         643
  C:4F68H         LINE#         645
  C:4F68H         LINE#         648
  C:4F6BH         LINE#         649
  C:4F6BH         LINE#         650
  C:4F6EH         LINE#         651
  C:4F71H         LINE#         652
  -------         ENDPROC       VTOKEN_INPUTPIN
BL51 BANKED LINKER/LOCATER V6.22                                                      02/03/2015  17:48:48  PAGE 70


  -------         PROC          VTOKEN_SETPIN
  -------         DO            
  X:0001H         SYMBOL        Key_Input
  X:0002H         SYMBOL        j
  X:0003H         SYMBOL        i
  X:0004H         SYMBOL        KBuff
  X:000CH         SYMBOL        bSetPin
  X:000DH         SYMBOL        bSecondInput
  -------         ENDDO         
  C:530BH         LINE#         664
  C:530BH         LINE#         665
  C:530BH         LINE#         667
  C:531EH         LINE#         668
  C:5322H         LINE#         669
  C:5326H         LINE#         670
  C:532AH         LINE#         671
  C:532DH         LINE#         677
  C:5331H         LINE#         679
  C:5334H         LINE#         680
  C:5337H         LINE#         681
  C:533EH         LINE#         682
  C:5345H         LINE#         683
  C:534CH         LINE#         684
  C:5353H         LINE#         685
  C:535AH         LINE#         687
  C:5361H         LINE#         688
  C:5368H         LINE#         689
  C:536FH         LINE#         692
  C:5376H         LINE#         693
  C:537DH         LINE#         694
  C:5384H         LINE#         697
  C:538AH         LINE#         700
  C:538DH         LINE#         701
  C:5393H         LINE#         702
  C:5396H         LINE#         703
  C:53A1H         LINE#         704
  C:53A1H         LINE#         708
  C:53A9H         LINE#         709
  C:53BBH         LINE#         710
  C:53BBH         LINE#         731
  C:53DBH         LINE#         732
  C:53DBH         LINE#         733
  C:53DBH         LINE#         734
  C:53DBH         LINE#         735
  C:53DBH         LINE#         736
  C:53DBH         LINE#         737
  C:53DBH         LINE#         738
  C:53DBH         LINE#         739
  C:53DBH         LINE#         740
  C:53DBH         LINE#         741
  C:53DBH         LINE#         742
  C:53DBH         LINE#         743
  C:53E1H         LINE#         744
  C:53E1H         LINE#         745
  C:53E3H         LINE#         746
  C:5405H         LINE#         748
  C:540AH         LINE#         751
BL51 BANKED LINKER/LOCATER V6.22                                                      02/03/2015  17:48:48  PAGE 71


  C:5413H         LINE#         753
  C:5419H         LINE#         755
  C:541EH         LINE#         757
  C:5421H         LINE#         759
  C:5421H         LINE#         760
  C:542EH         LINE#         761
  C:542EH         LINE#         764
  C:543FH         LINE#         765
  C:5445H         LINE#         767
  C:544AH         LINE#         770
  C:5458H         LINE#         772
  C:5458H         LINE#         777
  C:5458H         LINE#         778
  C:5458H         LINE#         779
  C:545BH         LINE#         780
  C:545BH         LINE#         781
  C:5460H         LINE#         782
  C:5471H         LINE#         783
  C:5471H         LINE#         785
  C:5476H         LINE#         788
  C:5479H         LINE#         790
  C:547FH         LINE#         792
  C:5487H         LINE#         793
  C:5487H         LINE#         794
  C:5487H         LINE#         795
  C:5494H         LINE#         796
  C:5494H         LINE#         797
  C:549AH         LINE#         798
  C:54A1H         LINE#         799
  C:54A1H         LINE#         800
  C:54A4H         LINE#         801
  C:54A6H         LINE#         803
  C:54A6H         LINE#         804
  C:54ACH         LINE#         805
  C:54ACH         LINE#         807
  C:54B1H         LINE#         810
  C:54BAH         LINE#         811
  C:54C3H         LINE#         813
  C:54C3H         LINE#         815
  C:54C3H         LINE#         816
  C:54C5H         LINE#         817
  C:54C5H         LINE#         818
  C:54D2H         LINE#         819
  C:54D2H         LINE#         820
  C:54D8H         LINE#         821
  C:54E1H         LINE#         822
  C:54E1H         LINE#         823
  C:54E4H         LINE#         824
  C:54E6H         LINE#         826
  C:54E6H         LINE#         827
  C:54EBH         LINE#         828
  C:54EBH         LINE#         830
  C:54F0H         LINE#         833
  C:54FEH         LINE#         834
  C:5507H         LINE#         836
  C:550DH         LINE#         838
  C:550DH         LINE#         839
BL51 BANKED LINKER/LOCATER V6.22                                                      02/03/2015  17:48:48  PAGE 72


  C:5510H         LINE#         840
  C:5510H         LINE#         842
  C:5510H         LINE#         843
  C:5510H         LINE#         845
  C:551BH         LINE#         846
  C:551BH         LINE#         847
  C:5529H         LINE#         848
  C:5529H         LINE#         850
  C:552EH         LINE#         853
  C:5531H         LINE#         855
  C:5537H         LINE#         857
  C:553FH         LINE#         858
  C:5544H         LINE#         859
  C:5548H         LINE#         860
  C:554EH         LINE#         861
  C:554EH         LINE#         862
  C:5550H         LINE#         864
  C:5555H         LINE#         867
  C:5560H         LINE#         870
  C:5566H         LINE#         872
  C:5579H         LINE#         874
  C:557BH         LINE#         876
  C:557BH         LINE#         878
  C:5591H         LINE#         879
  C:5591H         LINE#         880
  C:55A2H         LINE#         882
  C:55A7H         LINE#         885
  C:55B2H         LINE#         887
  C:55B8H         LINE#         889
  C:55BCH         LINE#         890
  C:55C0H         LINE#         892
  C:55C0H         LINE#         893
  C:55C2H         LINE#         895
  C:55C2H         LINE#         898
  C:55C7H         LINE#         901
  C:55D2H         LINE#         903
  C:55D8H         LINE#         905
  C:55DDH         LINE#         907
  C:55E2H         LINE#         908
  C:55E2H         LINE#         909
  C:55E2H         LINE#         910
  C:55E7H         LINE#         915
  C:55F3H         LINE#         916
  C:55F3H         LINE#         918
  C:55F8H         LINE#         921
  C:55FBH         LINE#         923
  C:5601H         LINE#         925
  C:5609H         LINE#         927
  C:560EH         LINE#         929
  C:5611H         LINE#         930
  C:5614H         LINE#         931
  C:561BH         LINE#         932
  C:5622H         LINE#         933
  C:5629H         LINE#         934
  C:5630H         LINE#         935
  C:5637H         LINE#         937
  C:563EH         LINE#         938
BL51 BANKED LINKER/LOCATER V6.22                                                      02/03/2015  17:48:48  PAGE 73


  C:5645H         LINE#         939
  C:564CH         LINE#         941
  C:5656H         LINE#         942
  C:5656H         LINE#         943
  C:5659H         LINE#         944
  C:5660H         LINE#         945
  C:5662H         LINE#         946
  C:5664H         LINE#         948
  C:5664H         LINE#         949
  C:5667H         LINE#         950
  C:566EH         LINE#         951
  C:5675H         LINE#         952
  C:5675H         LINE#         954
  C:567BH         LINE#         957
  C:5680H         LINE#         958
  C:5680H         LINE#         959
  C:5683H         LINE#         960
  C:5683H         LINE#         962
  C:5683H         LINE#         964
  C:5683H         LINE#         967
  C:5686H         LINE#         968
  C:5686H         LINE#         969
  C:5689H         LINE#         970
  C:568CH         LINE#         971
  C:568FH         LINE#         972
  -------         ENDPROC       VTOKEN_SETPIN
  -------         PROC          VTOKEN_UNLOCKPIN
  -------         DO            
  X:0001H         SYMBOL        Key_Input
  X:0002H         SYMBOL        j
  X:0003H         SYMBOL        i
  X:0004H         SYMBOL        bUnlockPin
  -------         ENDDO         
  C:4F72H         LINE#         983
  C:4F72H         LINE#         984
  C:4F72H         LINE#         985
  C:4F80H         LINE#         986
  C:4F85H         LINE#         987
  C:4F89H         LINE#         991
  C:4F8DH         LINE#         993
  C:4F90H         LINE#         994
  C:4F93H         LINE#         995
  C:4F9AH         LINE#         996
  C:4FA1H         LINE#         997
  C:4FA8H         LINE#         998
  C:4FAFH         LINE#         999
  C:4FB6H         LINE#         1001
  C:4FBDH         LINE#         1003
  C:4FC3H         LINE#         1006
  C:4FC6H         LINE#         1007
  C:4FCCH         LINE#         1008
  C:4FD1H         LINE#         1009
  C:4FDCH         LINE#         1010
  C:4FDCH         LINE#         1011
  C:4FE4H         LINE#         1012
  C:4FF6H         LINE#         1013
  C:4FF6H         LINE#         1016
BL51 BANKED LINKER/LOCATER V6.22                                                      02/03/2015  17:48:48  PAGE 74


  C:503CH         LINE#         1017
  C:503CH         LINE#         1018
  C:503CH         LINE#         1019
  C:503CH         LINE#         1020
  C:503CH         LINE#         1021
  C:503CH         LINE#         1022
  C:503CH         LINE#         1023
  C:503CH         LINE#         1024
  C:503CH         LINE#         1025
  C:503CH         LINE#         1026
  C:503CH         LINE#         1027
  C:503CH         LINE#         1028
  C:5042H         LINE#         1029
  C:5042H         LINE#         1030
  C:5044H         LINE#         1031
  C:5066H         LINE#         1033
  C:506BH         LINE#         1036
  C:5074H         LINE#         1038
  C:507AH         LINE#         1040
  C:507FH         LINE#         1041
  C:5082H         LINE#         1043
  C:5082H         LINE#         1044
  C:508FH         LINE#         1045
  C:508FH         LINE#         1046
  C:50A0H         LINE#         1047
  C:50A6H         LINE#         1049
  C:50ABH         LINE#         1052
  C:50B9H         LINE#         1054
  C:50B9H         LINE#         1056
  C:50B9H         LINE#         1057
  C:50B9H         LINE#         1058
  C:50BCH         LINE#         1059
  C:50BCH         LINE#         1060
  C:50C1H         LINE#         1061
  C:50D2H         LINE#         1062
  C:50D2H         LINE#         1064
  C:50D7H         LINE#         1067
  C:50DAH         LINE#         1069
  C:50E0H         LINE#         1071
  C:50E8H         LINE#         1072
  C:50E8H         LINE#         1073
  C:50E8H         LINE#         1074
  C:50F5H         LINE#         1075
  C:50F5H         LINE#         1076
  C:50FBH         LINE#         1077
  C:5102H         LINE#         1078
  C:5102H         LINE#         1079
  C:5105H         LINE#         1080
  C:5107H         LINE#         1082
  C:5107H         LINE#         1083
  C:510DH         LINE#         1084
  C:510DH         LINE#         1086
  C:5112H         LINE#         1089
  C:511BH         LINE#         1090
  C:5124H         LINE#         1092
  C:5124H         LINE#         1095
  C:5124H         LINE#         1096
BL51 BANKED LINKER/LOCATER V6.22                                                      02/03/2015  17:48:48  PAGE 75


  C:5126H         LINE#         1097
  C:5126H         LINE#         1098
  C:5133H         LINE#         1099
  C:5133H         LINE#         1100
  C:5139H         LINE#         1101
  C:5142H         LINE#         1102
  C:5142H         LINE#         1103
  C:5145H         LINE#         1104
  C:5147H         LINE#         1106
  C:5147H         LINE#         1107
  C:514CH         LINE#         1108
  C:514CH         LINE#         1110
  C:5151H         LINE#         1113
  C:515FH         LINE#         1114
  C:5168H         LINE#         1116
  C:516EH         LINE#         1119
  C:516EH         LINE#         1120
  C:5171H         LINE#         1121
  C:5171H         LINE#         1123
  C:5171H         LINE#         1124
  C:5171H         LINE#         1125
  C:5171H         LINE#         1127
  C:5176H         LINE#         1130
  C:5180H         LINE#         1132
  C:5186H         LINE#         1134
  C:518BH         LINE#         1135
  C:519EH         LINE#         1136
  C:519EH         LINE#         1137
  C:51A6H         LINE#         1138
  C:51A8H         LINE#         1139
  C:51A8H         LINE#         1140
  C:51A8H         LINE#         1141
  C:51A8H         LINE#         1144
  C:51B3H         LINE#         1145
  C:51B3H         LINE#         1148
  C:51D4H         LINE#         1149
  C:51D4H         LINE#         1151
  C:51D8H         LINE#         1154
  C:51DBH         LINE#         1155
  C:51E2H         LINE#         1156
  C:51E9H         LINE#         1157
  C:51F4H         LINE#         1159
  C:51FAH         LINE#         1161
  C:51FFH         LINE#         1166
  C:520BH         LINE#         1167
  C:520BH         LINE#         1169
  C:5210H         LINE#         1172
  C:5213H         LINE#         1174
  C:5219H         LINE#         1176
  C:5221H         LINE#         1177
  C:5226H         LINE#         1178
  C:5229H         LINE#         1179
  C:522DH         LINE#         1180
  C:5231H         LINE#         1181
  C:5234H         LINE#         1183
  C:5234H         LINE#         1184
  C:5237H         LINE#         1186
BL51 BANKED LINKER/LOCATER V6.22                                                      02/03/2015  17:48:48  PAGE 76


  C:5243H         LINE#         1187
  C:524EH         LINE#         1189
  C:5253H         LINE#         1192
  C:5256H         LINE#         1193
  C:525DH         LINE#         1194
  C:5264H         LINE#         1195
  C:526FH         LINE#         1197
  C:5275H         LINE#         1199
  C:527AH         LINE#         1200
  C:528AH         LINE#         1201
  C:528AH         LINE#         1202
  C:5292H         LINE#         1203
  C:5294H         LINE#         1205
  C:5299H         LINE#         1207
  C:529CH         LINE#         1209
  C:52A2H         LINE#         1211
  C:52AAH         LINE#         1212
  C:52AAH         LINE#         1215
  C:52AEH         LINE#         1216
  C:52B3H         LINE#         1218
  C:52B5H         LINE#         1220
  C:52B5H         LINE#         1222
  C:52BAH         LINE#         1224
  C:52BDH         LINE#         1225
  C:52C0H         LINE#         1226
  C:52C7H         LINE#         1227
  C:52CEH         LINE#         1228
  C:52D5H         LINE#         1229
  C:52DCH         LINE#         1230
  C:52E3H         LINE#         1232
  C:52EAH         LINE#         1234
  C:52F0H         LINE#         1237
  C:52F5H         LINE#         1239
  C:52F5H         LINE#         1240
  C:52F5H         LINE#         1241
  C:52FAH         LINE#         1242
  C:52FEH         LINE#         1243
  C:52FEH         LINE#         1244
  C:5301H         LINE#         1245
  C:5301H         LINE#         1247
  C:5301H         LINE#         1249
  C:5301H         LINE#         1252
  C:5304H         LINE#         1253
  C:5304H         LINE#         1254
  C:5307H         LINE#         1255
  C:530AH         LINE#         1257
  -------         ENDPROC       VTOKEN_UNLOCKPIN
  -------         PROC          VTOKEN_RUNMODE
  -------         DO            
  X:0001H         SYMBOL        Key_Input
  X:0002H         SYMBOL        i
  X:0003H         SYMBOL        j
  X:0004H         SYMBOL        bNormal
  X:0005H         SYMBOL        k
  -------         ENDDO         
  C:4257H         LINE#         1268
  C:4257H         LINE#         1269
BL51 BANKED LINKER/LOCATER V6.22                                                      02/03/2015  17:48:48  PAGE 77


  C:4257H         LINE#         1270
  C:4265H         LINE#         1272
  C:4268H         LINE#         1273
  C:426CH         LINE#         1274
  C:4270H         LINE#         1278
  C:4274H         LINE#         1280
  C:4277H         LINE#         1281
  C:427AH         LINE#         1282
  C:4281H         LINE#         1283
  C:4288H         LINE#         1284
  C:428FH         LINE#         1285
  C:4296H         LINE#         1286
  C:429DH         LINE#         1288
  C:42A4H         LINE#         1290
  C:42AAH         LINE#         1293
  C:42ADH         LINE#         1294
  C:42B0H         LINE#         1295
  C:42B6H         LINE#         1296
  C:42BBH         LINE#         1299
  C:42C6H         LINE#         1300
  C:42C6H         LINE#         1301
  C:42CEH         LINE#         1302
  C:42E0H         LINE#         1303
  C:42E0H         LINE#         1306
  C:4326H         LINE#         1307
  C:4326H         LINE#         1308
  C:4326H         LINE#         1309
  C:4326H         LINE#         1310
  C:4326H         LINE#         1311
  C:4326H         LINE#         1312
  C:4326H         LINE#         1313
  C:4326H         LINE#         1314
  C:4326H         LINE#         1315
  C:4326H         LINE#         1316
  C:4326H         LINE#         1317
  C:4326H         LINE#         1319
  C:432CH         LINE#         1320
  C:432CH         LINE#         1321
  C:432EH         LINE#         1322
  C:4350H         LINE#         1324
  C:4355H         LINE#         1327
  C:435EH         LINE#         1329
  C:4364H         LINE#         1331
  C:4369H         LINE#         1333
  C:436CH         LINE#         1335
  C:436CH         LINE#         1336
  C:4379H         LINE#         1337
  C:4379H         LINE#         1338
  C:438AH         LINE#         1339
  C:4390H         LINE#         1341
  C:4395H         LINE#         1344
  C:43A3H         LINE#         1346
  C:43A3H         LINE#         1349
  C:43A3H         LINE#         1350
  C:43A3H         LINE#         1351
  C:43A6H         LINE#         1352
  C:43A6H         LINE#         1353
BL51 BANKED LINKER/LOCATER V6.22                                                      02/03/2015  17:48:48  PAGE 78


  C:43ABH         LINE#         1362
  C:43BCH         LINE#         1363
  C:43BCH         LINE#         1365
  C:43C1H         LINE#         1368
  C:43C4H         LINE#         1370
  C:43CAH         LINE#         1372
  C:43D2H         LINE#         1373
  C:43D2H         LINE#         1374
  C:43D2H         LINE#         1375
  C:43DFH         LINE#         1376
  C:43DFH         LINE#         1377
  C:43E5H         LINE#         1378
  C:43ECH         LINE#         1379
  C:43ECH         LINE#         1380
  C:43EFH         LINE#         1381
  C:43F1H         LINE#         1383
  C:43F1H         LINE#         1384
  C:43F7H         LINE#         1385
  C:43F7H         LINE#         1387
  C:43FCH         LINE#         1390
  C:4405H         LINE#         1391
  C:440EH         LINE#         1393
  C:440EH         LINE#         1396
  C:440EH         LINE#         1397
  C:4410H         LINE#         1398
  C:4410H         LINE#         1399
  C:441DH         LINE#         1400
  C:441DH         LINE#         1401
  C:4423H         LINE#         1402
  C:442CH         LINE#         1403
  C:442CH         LINE#         1404
  C:442FH         LINE#         1405
  C:4431H         LINE#         1407
  C:4431H         LINE#         1408
  C:4436H         LINE#         1409
  C:4436H         LINE#         1411
  C:443BH         LINE#         1414
  C:4449H         LINE#         1415
  C:4452H         LINE#         1417
  C:4458H         LINE#         1420
  C:4458H         LINE#         1421
  C:445BH         LINE#         1422
  C:445BH         LINE#         1423
  C:445FH         LINE#         1424
  C:4464H         LINE#         1425
  C:4467H         LINE#         1426
  C:4467H         LINE#         1428
  C:4476H         LINE#         1429
  C:4476H         LINE#         1431
  C:447BH         LINE#         1434
  C:447EH         LINE#         1436
  C:4484H         LINE#         1438
  C:448CH         LINE#         1439
  C:4492H         LINE#         1440
  C:4492H         LINE#         1441
  C:4494H         LINE#         1442
  C:4498H         LINE#         1443
BL51 BANKED LINKER/LOCATER V6.22                                                      02/03/2015  17:48:48  PAGE 79


  C:449DH         LINE#         1445
  C:44A2H         LINE#         1447
  C:44A5H         LINE#         1448
  C:44A9H         LINE#         1450
  C:44A9H         LINE#         1453
  C:44ABH         LINE#         1455
  C:44ABH         LINE#         1456
  C:44B1H         LINE#         1457
  C:44B5H         LINE#         1458
  C:44BAH         LINE#         1460
  C:44BEH         LINE#         1462
  C:44C1H         LINE#         1463
  C:44C8H         LINE#         1465
  C:44CEH         LINE#         1467
  C:44CEH         LINE#         1468
  C:44CEH         LINE#         1471
  C:44D9H         LINE#         1472
  C:44D9H         LINE#         1484
  C:44DCH         LINE#         1485
  C:44F2H         LINE#         1489
  C:456BH         LINE#         1491
  C:4572H         LINE#         1492
  C:4575H         LINE#         1495
  C:457AH         LINE#         1497
  C:457DH         LINE#         1498
  C:4584H         LINE#         1507
  C:458FH         LINE#         1509
  C:4595H         LINE#         1511
  C:45ABH         LINE#         1513
  C:45AEH         LINE#         1514
  C:45B4H         LINE#         1516
  C:45B9H         LINE#         1518
  C:45BDH         LINE#         1519
  C:45C1H         LINE#         1520
  C:45C1H         LINE#         1521
  C:45C4H         LINE#         1523
  C:45C4H         LINE#         1533
  C:45D2H         LINE#         1536
  C:464BH         LINE#         1538
  C:4652H         LINE#         1539
  C:4655H         LINE#         1542
  C:465AH         LINE#         1544
  C:465DH         LINE#         1545
  C:4664H         LINE#         1555
  C:466FH         LINE#         1557
  C:4675H         LINE#         1559
  C:468BH         LINE#         1561
  C:468EH         LINE#         1562
  C:4694H         LINE#         1564
  C:4699H         LINE#         1565
  C:469DH         LINE#         1566
  C:46A1H         LINE#         1568
  C:46A1H         LINE#         1569
  C:46A6H         LINE#         1570
  C:46B6H         LINE#         1571
  C:46B6H         LINE#         1572
  C:46BEH         LINE#         1573
BL51 BANKED LINKER/LOCATER V6.22                                                      02/03/2015  17:48:48  PAGE 80


  C:46C0H         LINE#         1575
  C:46C5H         LINE#         1577
  C:46C8H         LINE#         1578
  C:46CFH         LINE#         1580
  C:46D5H         LINE#         1582
  C:46DAH         LINE#         1583
  C:46DAH         LINE#         1585
  C:46DFH         LINE#         1587
  C:46E2H         LINE#         1588
  C:46EAH         LINE#         1590
  C:46F0H         LINE#         1592
  C:46FCH         LINE#         1595
  C:4701H         LINE#         1597
  C:4704H         LINE#         1598
  C:4707H         LINE#         1599
  C:470EH         LINE#         1600
  C:4715H         LINE#         1601
  C:471CH         LINE#         1602
  C:4723H         LINE#         1603
  C:472AH         LINE#         1605
  C:4731H         LINE#         1607
  C:4737H         LINE#         1610
  C:473CH         LINE#         1611
  C:4740H         LINE#         1612
  C:4744H         LINE#         1613
  C:4747H         LINE#         1614
  C:4747H         LINE#         1616
  C:4747H         LINE#         1618
  C:4747H         LINE#         1621
  C:474AH         LINE#         1622
  C:474AH         LINE#         1623
  C:474DH         LINE#         1624
  C:4750H         LINE#         1626
  -------         ENDPROC       VTOKEN_RUNMODE
  -------         PROC          VTOKEN_ACTIVE
  -------         DO            
  X:0001H         SYMBOL        Key_Input
  X:0002H         SYMBOL        i
  X:0003H         SYMBOL        j
  X:0004H         SYMBOL        bActive
  X:0005H         SYMBOL        k
  X:0006H         SYMBOL        ActiveBuf
  -------         ENDDO         
  C:59F4H         LINE#         1638
  C:59F4H         LINE#         1639
  C:59F4H         LINE#         1640
  C:5A02H         LINE#         1641
  C:5A05H         LINE#         1642
  C:5A17H         LINE#         1643
  C:5A1CH         LINE#         1646
  C:5A20H         LINE#         1648
  C:5A23H         LINE#         1649
  C:5A26H         LINE#         1650
  C:5A2DH         LINE#         1651
  C:5A34H         LINE#         1652
  C:5A3BH         LINE#         1653
  C:5A42H         LINE#         1654
BL51 BANKED LINKER/LOCATER V6.22                                                      02/03/2015  17:48:48  PAGE 81


  C:5A49H         LINE#         1656
  C:5A50H         LINE#         1658
  C:5A56H         LINE#         1662
  C:5A59H         LINE#         1663
  C:5A5FH         LINE#         1664
  C:5A62H         LINE#         1665
  C:5A67H         LINE#         1668
  C:5A72H         LINE#         1669
  C:5A72H         LINE#         1671
  C:5A7AH         LINE#         1672
  C:5A8CH         LINE#         1673
  C:5A8CH         LINE#         1675
  C:5AACH         LINE#         1676
  C:5AACH         LINE#         1677
  C:5AACH         LINE#         1678
  C:5AACH         LINE#         1679
  C:5AACH         LINE#         1680
  C:5AACH         LINE#         1681
  C:5AACH         LINE#         1682
  C:5AACH         LINE#         1683
  C:5AACH         LINE#         1684
  C:5AACH         LINE#         1685
  C:5AACH         LINE#         1686
  C:5AACH         LINE#         1687
  C:5AB2H         LINE#         1688
  C:5AB2H         LINE#         1689
  C:5AB4H         LINE#         1690
  C:5AD6H         LINE#         1692
  C:5ADBH         LINE#         1694
  C:5AE4H         LINE#         1696
  C:5AEAH         LINE#         1698
  C:5AEFH         LINE#         1700
  C:5AF2H         LINE#         1702
  C:5AF2H         LINE#         1703
  C:5AFFH         LINE#         1704
  C:5AFFH         LINE#         1705
  C:5B10H         LINE#         1706
  C:5B16H         LINE#         1708
  C:5B1BH         LINE#         1710
  C:5B29H         LINE#         1712
  C:5B29H         LINE#         1715
  C:5B29H         LINE#         1716
  C:5B29H         LINE#         1717
  C:5B2CH         LINE#         1718
  C:5B2CH         LINE#         1719
  C:5B31H         LINE#         1720
  C:5B42H         LINE#         1721
  C:5B42H         LINE#         1723
  C:5B47H         LINE#         1725
  C:5B4AH         LINE#         1727
  C:5B50H         LINE#         1729
  C:5B58H         LINE#         1733
  C:5B58H         LINE#         1734
  C:5B58H         LINE#         1735
  C:5B65H         LINE#         1736
  C:5B65H         LINE#         1737
  C:5B6BH         LINE#         1738
BL51 BANKED LINKER/LOCATER V6.22                                                      02/03/2015  17:48:48  PAGE 82


  C:5B72H         LINE#         1739
  C:5B72H         LINE#         1740
  C:5B75H         LINE#         1741
  C:5B77H         LINE#         1743
  C:5B77H         LINE#         1744
  C:5B7DH         LINE#         1745
  C:5B7DH         LINE#         1747
  C:5B82H         LINE#         1749
  C:5B8BH         LINE#         1750
  C:5B94H         LINE#         1752
  C:5B94H         LINE#         1755
  C:5B94H         LINE#         1756
  C:5B96H         LINE#         1757
  C:5B96H         LINE#         1758
  C:5BA3H         LINE#         1759
  C:5BA3H         LINE#         1760
  C:5BA9H         LINE#         1761
  C:5BB2H         LINE#         1762
  C:5BB2H         LINE#         1763
  C:5BB5H         LINE#         1764
  C:5BB7H         LINE#         1766
  C:5BB7H         LINE#         1767
  C:5BBCH         LINE#         1768
  C:5BBCH         LINE#         1770
  C:5BC1H         LINE#         1772
  C:5BCFH         LINE#         1773
  C:5BD8H         LINE#         1775
  C:5BDEH         LINE#         1778
  C:5BDEH         LINE#         1779
  C:5BE1H         LINE#         1780
  C:5BE1H         LINE#         1782
  C:5BE1H         LINE#         1783
  C:5BE1H         LINE#         1784
  C:5BE1H         LINE#         1785
  C:5BE1H         LINE#         1787
  C:5BECH         LINE#         1788
  C:5BECH         LINE#         1789
  C:5C01H         LINE#         1790
  C:5C01H         LINE#         1792
  C:5C05H         LINE#         1794
  C:5C08H         LINE#         1795
  C:5C0BH         LINE#         1796
  C:5C12H         LINE#         1797
  C:5C19H         LINE#         1799
  C:5C1FH         LINE#         1803
  C:5C24H         LINE#         1804
  C:5C28H         LINE#         1806
  C:5C2CH         LINE#         1807
  C:5C2CH         LINE#         1808
  C:5C2CH         LINE#         1809
  C:5C2FH         LINE#         1811
  C:5C2FH         LINE#         1813
  C:5C34H         LINE#         1815
  C:5C37H         LINE#         1816
  C:5C3AH         LINE#         1817
  C:5C41H         LINE#         1818
  C:5C48H         LINE#         1820
BL51 BANKED LINKER/LOCATER V6.22                                                      02/03/2015  17:48:48  PAGE 83


  C:5C4EH         LINE#         1823
  C:5C53H         LINE#         1824
  C:5C63H         LINE#         1825
  C:5C63H         LINE#         1826
  C:5C6BH         LINE#         1827
  C:5C6DH         LINE#         1829
  C:5C72H         LINE#         1831
  C:5C75H         LINE#         1832
  C:5C7CH         LINE#         1834
  C:5C82H         LINE#         1836
  C:5C91H         LINE#         1837
  C:5C91H         LINE#         1839
  C:5C96H         LINE#         1842
  C:5C99H         LINE#         1844
  C:5C9FH         LINE#         1846
  C:5CA7H         LINE#         1849
  C:5CACH         LINE#         1851
  C:5CAFH         LINE#         1852
  C:5CB2H         LINE#         1853
  C:5CB9H         LINE#         1854
  C:5CC0H         LINE#         1855
  C:5CC7H         LINE#         1856
  C:5CCEH         LINE#         1857
  C:5CD5H         LINE#         1859
  C:5CDCH         LINE#         1861
  C:5CE2H         LINE#         1865
  C:5CE7H         LINE#         1866
  C:5CECH         LINE#         1867
  C:5CF0H         LINE#         1868
  C:5CF5H         LINE#         1869
  C:5CF9H         LINE#         1870
  C:5CF9H         LINE#         1872
  C:5CF9H         LINE#         1873
  C:5CFCH         LINE#         1874
  C:5CFCH         LINE#         1876
  C:5CFCH         LINE#         1878
  C:5CFCH         LINE#         1881
  C:5CFFH         LINE#         1882
  C:5CFFH         LINE#         1883
  C:5D02H         LINE#         1884
  C:5D05H         LINE#         1886
  -------         ENDPROC       VTOKEN_ACTIVE
  -------         PROC          VTOKEN_INVALID
  C:8AF7H         LINE#         1897
  C:8AF7H         LINE#         1898
  C:8AF7H         LINE#         1900
  C:8AFCH         LINE#         1902
  C:8AFFH         LINE#         1903
  C:8B02H         LINE#         1904
  C:8B09H         LINE#         1905
  C:8B14H         LINE#         1907
  C:8B1AH         LINE#         1909
  C:8B1AH         LINE#         1910
  C:8B1AH         LINE#         1911
  C:8B1FH         LINE#         1913
  C:8B25H         LINE#         1914
  -------         ENDPROC       VTOKEN_INVALID
BL51 BANKED LINKER/LOCATER V6.22                                                      02/03/2015  17:48:48  PAGE 84


  -------         ENDMOD        TOKENAPP

  -------         MODULE        EWATCHAPP
  C:0000H         SYMBOL        _ICE_DUMMY_
  B:00A8H.7       PUBLIC        EA
  D:00DEH         PUBLIC        TBCDR0
  D:00DDH         PUBLIC        TBCDR1
  D:00DCH         PUBLIC        TBCDR2
  D:00DBH         PUBLIC        TBCDR3
  C:5D06H         PUBLIC        vOTP_Ewatch
  D:0098H         PUBLIC        SCUIE0
  D:00DFH         PUBLIC        TBCINTSTS
  D:0091H         PUBLIC        SCUMCG
  B:00A8H.1       PUBLIC        ET0
  C:8C57H         PUBLIC        vUtc_To_GTM8
  X:00DCH         PUBLIC        CurTimeBuf
  X:00E5H         PUBLIC        SetTimeBuf
  C:64FAH         PUBLIC        vTimer_Disp
  -------         PROC          VTIMER_DISP
  C:64FAH         LINE#         25
  C:64FAH         LINE#         26
  C:64FAH         LINE#         33
  C:65A1H         LINE#         38
  C:6647H         LINE#         43
  C:66E4H         LINE#         45
  C:66EAH         LINE#         46
  C:66EEH         LINE#         49
  C:66F3H         LINE#         53
  C:66FEH         LINE#         56
  C:6704H         LINE#         59
  -------         ENDPROC       VTIMER_DISP
  -------         PROC          VUTC_TO_GTM8
  C:8C57H         LINE#         61
  C:8C57H         LINE#         62
  C:8C57H         LINE#         63
  C:8C5BH         LINE#         64
  C:8C5EH         LINE#         65
  C:8C61H         LINE#         66
  C:8C67H         LINE#         67
  C:8C69H         LINE#         68
  C:8C6BH         LINE#         69
  C:8C6EH         LINE#         70
  C:8C6EH         LINE#         71
  C:8C6EH         LINE#         72
  C:8C75H         LINE#         73
  C:8C75H         LINE#         74
  C:8C77H         LINE#         75
  C:8C7AH         LINE#         76
  C:8C7AH         LINE#         77
  -------         ENDPROC       VUTC_TO_GTM8
  -------         PROC          VOTP_EWATCH
  -------         DO            
  X:010CH         SYMBOL        Key_Input
  X:010DH         SYMBOL        j
  X:010EH         SYMBOL        i
  X:010FH         SYMBOL        bWatch
  -------         ENDDO         
BL51 BANKED LINKER/LOCATER V6.22                                                      02/03/2015  17:48:48  PAGE 85


  C:5D06H         LINE#         80
  C:5D06H         LINE#         81
  C:5D06H         LINE#         83
  C:5D14H         LINE#         88
  C:5D17H         LINE#         89
  C:5D1DH         LINE#         91
  C:5D22H         LINE#         92
  C:5D25H         LINE#         93
  C:5D28H         LINE#         95
  C:5D2CH         LINE#         97
  C:5D2FH         LINE#         98
  C:5D3AH         LINE#         100
  C:5D40H         LINE#         104
  C:5D45H         LINE#         105
  C:5D49H         LINE#         106
  C:5D54H         LINE#         107
  C:5D54H         LINE#         108
  C:5D5CH         LINE#         109
  C:5D6EH         LINE#         110
  C:5D6EH         LINE#         112
  C:5DB4H         LINE#         113
  C:5DB4H         LINE#         114
  C:5DB4H         LINE#         115
  C:5DB4H         LINE#         116
  C:5DB4H         LINE#         117
  C:5DB4H         LINE#         118
  C:5DB4H         LINE#         119
  C:5DB4H         LINE#         120
  C:5DB4H         LINE#         121
  C:5DB4H         LINE#         122
  C:5DB4H         LINE#         123
  C:5DB4H         LINE#         124
  C:5DBAH         LINE#         125
  C:5DBAH         LINE#         126
  C:5DBCH         LINE#         127
  C:5DDDH         LINE#         129
  C:5DE2H         LINE#         131
  C:5DE5H         LINE#         132
  C:5DF3H         LINE#         134
  C:5DF9H         LINE#         136
  C:5DFEH         LINE#         137
  C:5E04H         LINE#         139
  C:5E07H         LINE#         141
  C:5E07H         LINE#         142
  C:5E14H         LINE#         143
  C:5E14H         LINE#         146
  C:5E25H         LINE#         147
  C:5E2BH         LINE#         149
  C:5E30H         LINE#         151
  C:5E33H         LINE#         152
  C:5E3EH         LINE#         154
  C:5E3EH         LINE#         157
  C:5E3EH         LINE#         158
  C:5E3EH         LINE#         159
  C:5E41H         LINE#         160
  C:5E41H         LINE#         162
  C:5E52H         LINE#         163
BL51 BANKED LINKER/LOCATER V6.22                                                      02/03/2015  17:48:48  PAGE 86


  C:5E52H         LINE#         165
  C:5E57H         LINE#         168
  C:5E5AH         LINE#         169
  C:5E62H         LINE#         171
  C:5E68H         LINE#         173
  C:5E70H         LINE#         174
  C:5E70H         LINE#         175
  C:5E70H         LINE#         176
  C:5E7DH         LINE#         177
  C:5E7DH         LINE#         178
  C:5E83H         LINE#         179
  C:5E8AH         LINE#         180
  C:5E8AH         LINE#         181
  C:5E8DH         LINE#         182
  C:5E8FH         LINE#         184
  C:5E8FH         LINE#         185
  C:5E95H         LINE#         186
  C:5E95H         LINE#         188
  C:5E95H         LINE#         190
  C:5E95H         LINE#         191
  C:5E95H         LINE#         192
  C:5E95H         LINE#         194
  C:5E95H         LINE#         196
  C:5E95H         LINE#         197
  C:5E97H         LINE#         198
  C:5E97H         LINE#         199
  C:5EA4H         LINE#         200
  C:5EA4H         LINE#         201
  C:5EAAH         LINE#         202
  C:5EB3H         LINE#         203
  C:5EB3H         LINE#         204
  C:5EB6H         LINE#         205
  C:5EB8H         LINE#         207
  C:5EB8H         LINE#         208
  C:5EBDH         LINE#         209
  C:5EBDH         LINE#         211
  C:5EC2H         LINE#         214
  C:5EC5H         LINE#         215
  C:5ED3H         LINE#         216
  C:5EDCH         LINE#         218
  C:5EDCH         LINE#         220
  C:5EDCH         LINE#         221
  C:5EDFH         LINE#         222
  C:5EDFH         LINE#         223
  C:5EE2H         LINE#         226
  C:5EE2H         LINE#         227
  C:5EE2H         LINE#         228
  C:5EE4H         LINE#         229
  C:5EE4H         LINE#         232
  C:5EE7H         LINE#         234
  C:5EEDH         LINE#         235
  C:5EF2H         LINE#         238
  C:5EF5H         LINE#         239
  C:5EF5H         LINE#         240
  C:5EF9H         LINE#         241
  C:5EFEH         LINE#         242
  C:5F5AH         LINE#         243
BL51 BANKED LINKER/LOCATER V6.22                                                      02/03/2015  17:48:48  PAGE 87


  C:5F5DH         LINE#         244
  C:5F5DH         LINE#         246
  C:5F5DH         LINE#         248
  C:5F5DH         LINE#         249
  C:5F68H         LINE#         250
  C:5F68H         LINE#         251
  C:5F69H         LINE#         252
  C:5F6FH         LINE#         254
  C:5F73H         LINE#         255
  C:5F73H         LINE#         256
  C:5F76H         LINE#         257
  C:5F7CH         LINE#         258
  C:5F7CH         LINE#         259
  C:5F83H         LINE#         260
  C:5F83H         LINE#         261
  C:5F86H         LINE#         262
  C:5F8CH         LINE#         263
  C:5F8CH         LINE#         264
  C:5F93H         LINE#         265
  C:5F93H         LINE#         266
  C:5F96H         LINE#         267
  C:5F9CH         LINE#         270
  C:5F9CH         LINE#         271
  C:5FA3H         LINE#         272
  C:5FA3H         LINE#         273
  C:5FA6H         LINE#         274
  C:5FACH         LINE#         280
  C:5FACH         LINE#         281
  C:5FB5H         LINE#         282
  C:5FB5H         LINE#         283
  C:5FBAH         LINE#         284
  C:5FBAH         LINE#         285
  C:5FBDH         LINE#         286
  C:5FC3H         LINE#         287
  C:5FC3H         LINE#         288
  C:5FC5H         LINE#         290
  C:5FC5H         LINE#         291
  C:5FCCH         LINE#         292
  C:5FCCH         LINE#         293
  C:5FCFH         LINE#         294
  C:5FD3H         LINE#         295
  C:5FD3H         LINE#         296
  C:5FD3H         LINE#         298
  C:5FD8H         LINE#         301
  C:5FE3H         LINE#         303
  C:5FE9H         LINE#         305
  C:5FE9H         LINE#         306
  C:5FE9H         LINE#         307
  C:5FECH         LINE#         308
  C:5FEFH         LINE#         309
  -------         ENDPROC       VOTP_EWATCH
  -------         ENDMOD        EWATCHAPP

  -------         MODULE        PUTCHAR
  C:0000H         SYMBOL        _ICE_DUMMY_
  C:0006H         PUBLIC        _putchar
  -------         PROC          _PUTCHAR
BL51 BANKED LINKER/LOCATER V6.22                                                      02/03/2015  17:48:48  PAGE 88


  D:0007H         SYMBOL        x
  C:0006H         LINE#         33
  C:0006H         LINE#         34
  C:0006H         LINE#         35
  -------         ENDPROC       _PUTCHAR
  -------         ENDMOD        PUTCHAR

  -------         MODULE        CMDPROC
  C:0000H         SYMBOL        _ICE_DUMMY_
  C:8547H         PUBLIC        Cmd_Handle_Array
  C:8DA4H         PUBLIC        vCmdErr
  C:75A2H         PUBLIC        vCmdHandle
  -------         PROC          VCMDERR
  C:8DA4H         LINE#         4
  C:8DA4H         LINE#         5
  C:8DA4H         LINE#         7
  -------         ENDPROC       VCMDERR
  -------         PROC          VCMDHANDLE
  -------         DO            
  X:0001H         SYMBOL        i
  X:0003H         SYMBOL        cmd_len
  -------         ENDDO         
  C:75A2H         LINE#         28
  C:75A2H         LINE#         29
  C:75A2H         LINE#         30
  C:75A9H         LINE#         32
  C:75B2H         LINE#         33
  C:75B8H         LINE#         34
  C:75BDH         LINE#         35
  C:75BDH         LINE#         36
  C:75BDH         LINE#         38
  C:75BDH         LINE#         39
  C:75BDH         LINE#         40
  C:75C8H         LINE#         41
  C:75CEH         LINE#         42
  C:75CEH         LINE#         43
  C:75CEH         LINE#         46
  C:75D5H         LINE#         47
  C:75D5H         LINE#         48
  C:75D7H         LINE#         49
  C:75DBH         LINE#         50
  C:75F5H         LINE#         51
  C:75F5H         LINE#         52
  C:7615H         LINE#         53
  C:7615H         LINE#         54
  C:762AH         LINE#         55
  C:7637H         LINE#         56
  C:7639H         LINE#         57
  C:7653H         LINE#         58
  C:7653H         LINE#         59
  C:7673H         LINE#         60
  C:7673H         LINE#         64
  -------         ENDPROC       VCMDHANDLE
  -------         ENDMOD        CMDPROC

  -------         MODULE        DEBUG
  C:0000H         SYMBOL        _ICE_DUMMY_
BL51 BANKED LINKER/LOCATER V6.22                                                      02/03/2015  17:48:48  PAGE 89


  C:869EH         PUBLIC        _ucSysClkChange
  D:0090H         PUBLIC        SCUOSCCTRL
  C:78E1H         PUBLIC        _vDelay
  -------         PROC          _VDELAY
  D:0006H         SYMBOL        ucCount
  -------         DO            
  D:0004H         SYMBOL        i
  -------         ENDDO         
  C:78E1H         LINE#         4
  C:78E1H         LINE#         5
  C:78E1H         LINE#         7
  C:78EEH         LINE#         8
  C:78EEH         LINE#         9
  C:78EFH         LINE#         10
  C:78F0H         LINE#         11
  C:78F1H         LINE#         12
  C:78F2H         LINE#         13
  C:78F3H         LINE#         14
  C:78F4H         LINE#         15
  C:78F5H         LINE#         16
  C:78F6H         LINE#         17
  C:78F7H         LINE#         18
  C:78F8H         LINE#         20
  C:78F9H         LINE#         21
  C:78FAH         LINE#         22
  C:78FBH         LINE#         23
  C:78FCH         LINE#         24
  C:78FDH         LINE#         25
  C:78FEH         LINE#         26
  C:78FFH         LINE#         27
  C:7900H         LINE#         28
  C:7901H         LINE#         29
  C:7902H         LINE#         31
  C:7903H         LINE#         32
  C:7904H         LINE#         33
  C:7905H         LINE#         34
  C:7906H         LINE#         35
  C:7907H         LINE#         36
  C:7908H         LINE#         37
  C:7909H         LINE#         38
  C:790AH         LINE#         39
  C:790BH         LINE#         40
  C:790CH         LINE#         42
  C:790DH         LINE#         43
  C:790EH         LINE#         44
  C:790FH         LINE#         45
  C:7910H         LINE#         46
  C:7911H         LINE#         47
  C:7912H         LINE#         48
  C:7913H         LINE#         49
  C:7914H         LINE#         50
  C:7915H         LINE#         51
  C:7916H         LINE#         53
  C:7917H         LINE#         54
  C:7918H         LINE#         55
  C:7919H         LINE#         56
  C:791AH         LINE#         57
BL51 BANKED LINKER/LOCATER V6.22                                                      02/03/2015  17:48:48  PAGE 90


  C:791BH         LINE#         58
  C:791CH         LINE#         59
  C:791DH         LINE#         60
  C:791EH         LINE#         61
  C:791FH         LINE#         62
  C:7920H         LINE#         64
  C:7921H         LINE#         65
  C:7922H         LINE#         66
  C:7923H         LINE#         67
  C:7924H         LINE#         68
  C:7925H         LINE#         69
  C:7926H         LINE#         70
  C:7927H         LINE#         71
  C:7928H         LINE#         72
  C:7929H         LINE#         73
  C:792AH         LINE#         75
  C:792BH         LINE#         76
  C:792CH         LINE#         77
  C:792DH         LINE#         78
  C:792EH         LINE#         79
  C:792FH         LINE#         80
  C:7930H         LINE#         81
  C:7931H         LINE#         82
  C:7932H         LINE#         83
  C:7933H         LINE#         84
  C:7934H         LINE#         86
  C:7935H         LINE#         87
  C:7936H         LINE#         88
  C:7937H         LINE#         89
  C:7938H         LINE#         90
  C:7939H         LINE#         91
  C:793AH         LINE#         92
  C:793BH         LINE#         93
  C:793CH         LINE#         94
  C:793DH         LINE#         95
  C:793EH         LINE#         97
  C:793FH         LINE#         98
  C:7940H         LINE#         99
  C:7941H         LINE#         100
  C:7942H         LINE#         101
  C:7943H         LINE#         102
  C:7944H         LINE#         103
  C:7945H         LINE#         104
  C:7946H         LINE#         105
  C:7947H         LINE#         106
  C:7948H         LINE#         108
  C:7949H         LINE#         109
  C:794AH         LINE#         110
  C:794BH         LINE#         111
  C:794CH         LINE#         112
  C:794DH         LINE#         113
  C:794EH         LINE#         114
  C:794FH         LINE#         115
  C:7950H         LINE#         116
  C:7951H         LINE#         117
  C:7952H         LINE#         119
  C:7953H         LINE#         120
BL51 BANKED LINKER/LOCATER V6.22                                                      02/03/2015  17:48:48  PAGE 91


  C:7954H         LINE#         121
  C:7955H         LINE#         122
  C:7956H         LINE#         123
  C:7957H         LINE#         124
  C:7958H         LINE#         125
  C:7959H         LINE#         126
  C:795AH         LINE#         127
  C:795BH         LINE#         128
  C:795CH         LINE#         130
  C:795DH         LINE#         131
  C:795EH         LINE#         132
  C:795FH         LINE#         133
  C:7960H         LINE#         134
  C:7961H         LINE#         135
  C:7962H         LINE#         136
  C:7963H         LINE#         137
  C:7964H         LINE#         138
  C:7965H         LINE#         139
  C:7966H         LINE#         141
  C:7967H         LINE#         142
  C:7968H         LINE#         143
  C:7969H         LINE#         144
  C:796AH         LINE#         145
  C:796BH         LINE#         146
  C:796CH         LINE#         147
  C:796DH         LINE#         148
  C:796EH         LINE#         149
  C:796FH         LINE#         150
  C:7970H         LINE#         152
  C:7971H         LINE#         153
  C:7972H         LINE#         154
  C:7973H         LINE#         155
  C:7974H         LINE#         156
  C:7975H         LINE#         157
  C:7976H         LINE#         158
  C:7977H         LINE#         159
  C:7978H         LINE#         160
  C:7979H         LINE#         161
  C:797AH         LINE#         163
  C:797BH         LINE#         164
  C:797CH         LINE#         165
  C:797DH         LINE#         166
  C:797EH         LINE#         167
  C:797FH         LINE#         168
  C:7980H         LINE#         169
  C:7981H         LINE#         170
  C:7982H         LINE#         171
  C:7983H         LINE#         172
  C:7984H         LINE#         174
  C:7985H         LINE#         175
  C:7986H         LINE#         176
  C:7987H         LINE#         177
  C:7988H         LINE#         178
  C:7989H         LINE#         179
  C:798AH         LINE#         180
  C:798BH         LINE#         181
  C:798CH         LINE#         182
BL51 BANKED LINKER/LOCATER V6.22                                                      02/03/2015  17:48:48  PAGE 92


  C:798DH         LINE#         183
  C:798EH         LINE#         185
  C:7996H         LINE#         186
  -------         ENDPROC       _VDELAY
  -------         PROC          _UCSYSCLKCHANGE
  D:0007H         SYMBOL        CLK
  C:869EH         LINE#         188
  C:869EH         LINE#         189
  C:869EH         LINE#         190
  C:86AEH         LINE#         191
  C:86AEH         LINE#         192
  C:86AEH         LINE#         193
  C:86C4H         LINE#         195
  C:86C6H         LINE#         196
  C:86C6H         LINE#         197
  C:86DCH         LINE#         199
  C:86DEH         LINE#         200
  C:86DEH         LINE#         202
  C:86ECH         LINE#         203
  C:86EEH         LINE#         204
  C:86EEH         LINE#         206
  C:86F9H         LINE#         208
  C:86F9H         LINE#         209
  C:86F9H         LINE#         210
  C:86F9H         LINE#         211
  C:86F9H         LINE#         213
  C:86FBH         LINE#         214
  -------         ENDPROC       _UCSYSCLKCHANGE
  -------         ENDMOD        DEBUG

  -------         MODULE        CRC
  C:7E93H         SEGMENT       ?PR?_U16CRCCOMPUTE?CRC
  X:000DH         SEGMENT       ?XD?_U16CRCCOMPUTE?CRC
  C:8DE5H         SEGMENT       ?PR?_UCENDIANCHANGE?CRC
  C:7E93H         PUBLIC        _U16CRCCOMPUTE
  C:8DE5H         PUBLIC        _UCENDIANCHANGE
  C:7EAAH         SYMBOL        ?C0001
  C:7F12H         SYMBOL        ?C0002
  C:7F0BH         SYMBOL        ?C0003
  C:7ECCH         SYMBOL        ?C0004
  C:7EE7H         SYMBOL        ?C0007
  C:7EF4H         SYMBOL        ?C0008
  C:7F1AH         SYMBOL        ?C0009
  C:8DF8H         SYMBOL        ?C0010
  C:7F05H         SYMBOL        ?C0011
  C:7F10H         SYMBOL        ?C0012
  X:000DH         SYMBOL        ?_U16CRCCOMPUTE?BYTE
  B:00D0H.6       SYMBOL        AC
  D:00E0H         SYMBOL        ACC
  X:000DH         SYMBOL        ADDR?040
  D:00F0H         SYMBOL        B
  N:0000H         SYMBOL        CRC
  X:0011H         SYMBOL        CRC?042
  B:00D0H.7       SYMBOL        CY
  D:0083H         SYMBOL        DPH
  D:0085H         SYMBOL        DPH2
  D:0082H         SYMBOL        DPL
BL51 BANKED LINKER/LOCATER V6.22                                                      02/03/2015  17:48:48  PAGE 93


  D:0084H         SYMBOL        DPL2
  D:0086H         SYMBOL        DPS
  B:00A8H.7       SYMBOL        EA
  C:8DECH         SYMBOL        ENDIANLOOP
  B:00A8H.4       SYMBOL        ES
  B:00A8H.1       SYMBOL        ET0
  B:00A8H.3       SYMBOL        ET1
  B:00A8H.0       SYMBOL        EX0
  B:00A8H.2       SYMBOL        EX1
  B:00D0H.5       SYMBOL        F0
  D:00A8H         SYMBOL        IE
  B:0088H.1       SYMBOL        IE0
  B:0088H.3       SYMBOL        IE1
  D:00C0H         SYMBOL        IOMCR
  D:00C6H         SYMBOL        IOMP0DIN
  D:00C1H         SYMBOL        IOMP0DIR
  D:00C7H         SYMBOL        IOMP0DOUT
  D:00C4H         SYMBOL        IOMP0INTS1
  D:00C5H         SYMBOL        IOMP0INTS2
  D:00C8H         SYMBOL        IOMP0ISR
  D:00C3H         SYMBOL        IOMP0PD
  D:00C2H         SYMBOL        IOMP0PU
  D:00CEH         SYMBOL        IOMP1DIN
  D:00C9H         SYMBOL        IOMP1DIR
  D:00CFH         SYMBOL        IOMP1DOUT
  D:00CCH         SYMBOL        IOMP1INTS1
  D:00CDH         SYMBOL        IOMP1INTS2
  D:00BCH         SYMBOL        IOMP1ISR
  D:00CBH         SYMBOL        IOMP1PD
  D:00CAH         SYMBOL        IOMP1PU
  D:00B8H         SYMBOL        IP
  B:0088H.0       SYMBOL        IT0
  B:0088H.2       SYMBOL        IT1
  D:00A1H         SYMBOL        KBCCR
  D:00A2H         SYMBOL        KBCDAT1
  D:00A3H         SYMBOL        KBCDAT2
  D:00A0H         SYMBOL        KBCSTAT
  X:000FH         SYMBOL        LEN?041
  B:00D0H.2       SYMBOL        OV
  B:00D0H.0       SYMBOL        P
  D:0087H         SYMBOL        PCON
  B:00B8H.4       SYMBOL        PS
  D:00D0H         SYMBOL        PSW
  B:00B8H.1       SYMBOL        PT0
  B:00B8H.3       SYMBOL        PT1
  B:00B8H.0       SYMBOL        PX0
  B:00B8H.2       SYMBOL        PX1
  D:00EFH         SYMBOL        RNGDATA
  D:00EEH         SYMBOL        RNGINT
  D:00EDH         SYMBOL        RNGMODE
  D:00ECH         SYMBOL        RNGSTART
  B:00D0H.3       SYMBOL        RS0
  B:00D0H.4       SYMBOL        RS1
  D:009CH         SYMBOL        SCUCTRL
  D:0098H         SYMBOL        SCUIE0
  D:0099H         SYMBOL        SCUIE1
  D:009AH         SYMBOL        SCUIS0
BL51 BANKED LINKER/LOCATER V6.22                                                      02/03/2015  17:48:48  PAGE 94


  D:009BH         SYMBOL        SCUIS1
  D:00F9H         SYMBOL        SCULCDSWEN
  D:0091H         SYMBOL        SCUMCG
  D:0090H         SYMBOL        SCUOSCCTRL
  D:009EH         SYMBOL        SCUPC
  D:0092H         SYMBOL        SCUPM
  D:0093H         SYMBOL        SCUPMP
  D:00FAH         SYMBOL        SCURAMSWEN
  D:009DH         SYMBOL        SCURNGC
  D:0094H         SYMBOL        SCUSO
  D:00F8H         SYMBOL        SCUTMRCG
  D:0096H         SYMBOL        SCUWE0
  D:0097H         SYMBOL        SCUWE1
  D:0095H         SYMBOL        SCUWT
  D:00F4H         SYMBOL        SM3CON
  D:00F5H         SYMBOL        SM3INT
  D:0081H         SYMBOL        SP
  D:00D9H         SYMBOL        TBCADJH
  D:00D8H         SYMBOL        TBCADJL
  D:00DEH         SYMBOL        TBCDR0
  D:00DDH         SYMBOL        TBCDR1
  D:00DCH         SYMBOL        TBCDR2
  D:00DBH         SYMBOL        TBCDR3
  D:00DFH         SYMBOL        TBCINTSTS
  D:00DAH         SYMBOL        TBCSTART
  D:0088H         SYMBOL        TCON
  B:0088H.5       SYMBOL        TF0
  B:0088H.7       SYMBOL        TF1
  D:00B0H         SYMBOL        TM0CDATA
  D:00B3H         SYMBOL        TM0CON
  D:00B1H         SYMBOL        TM1CDATA
  D:00B4H         SYMBOL        TM1CON
  D:00B5H         SYMBOL        TM1INTSTS
  D:00B2H         SYMBOL        TM1MOD
  D:00A0H         SYMBOL        TM2CDATA
  D:00A3H         SYMBOL        TM2CON
  D:00A5H         SYMBOL        TM2INTSTS
  D:00A2H         SYMBOL        TM2MOD
  D:00A1H         SYMBOL        TM3CDATA
  D:00A4H         SYMBOL        TM3CON
  D:00D4H         SYMBOL        UARTBUF
  D:00D5H         SYMBOL        UARTCON
  D:00D6H         SYMBOL        UARTSTAT
  D:00E4H         SYMBOL        WDTCON
  D:00E6H         SYMBOL        WDTINTSTS
  D:00E5H         SYMBOL        WDTMOD
  C:7E93H         LINE#         154
  C:7E96H         LINE#         155
  C:7E97H         LINE#         156
  C:7E98H         LINE#         157
  C:7E99H         LINE#         158
  C:7E9AH         LINE#         159
  C:7E9BH         LINE#         160
  C:7E9CH         LINE#         161
  C:7E9DH         LINE#         162
  C:7E9EH         LINE#         163
  C:7E9FH         LINE#         164
BL51 BANKED LINKER/LOCATER V6.22                                                      02/03/2015  17:48:48  PAGE 95


  C:7EA0H         LINE#         165
  C:7EA1H         LINE#         166
  C:7EA2H         LINE#         167
  C:7EA3H         LINE#         168
  C:7EA4H         LINE#         169
  C:7EA5H         LINE#         170
  C:7EA6H         LINE#         171
  C:7EA7H         LINE#         179
  C:7EA8H         LINE#         180
  C:7EA9H         LINE#         181
  C:7EAAH         LINE#         183
  C:7EABH         LINE#         184
  C:7EAEH         LINE#         185
  C:7EAFH         LINE#         186
  C:7EB0H         LINE#         187
  C:7EB3H         LINE#         188
  C:7EB4H         LINE#         189
  C:7EB5H         LINE#         190
  C:7EB7H         LINE#         195
  C:7EBAH         LINE#         196
  C:7EBBH         LINE#         197
  C:7EBCH         LINE#         198
  C:7EBDH         LINE#         199
  C:7EC0H         LINE#         200
  C:7EC1H         LINE#         201
  C:7EC2H         LINE#         202
  C:7EC4H         LINE#         203
  C:7EC6H         LINE#         204
  C:7EC7H         LINE#         205
  C:7EC8H         LINE#         207
  C:7EC9H         LINE#         211
  C:7ECAH         LINE#         212
  C:7ECBH         LINE#         213
  C:7ECCH         LINE#         219
  C:7ECFH         LINE#         220
  C:7ED0H         LINE#         221
  C:7ED1H         LINE#         222
  C:7ED4H         LINE#         223
  C:7ED5H         LINE#         224
  C:7ED6H         LINE#         225
  C:7ED8H         LINE#         226
  C:7ED9H         LINE#         227
  C:7EDCH         LINE#         228
  C:7EDDH         LINE#         229
  C:7EDEH         LINE#         230
  C:7EE0H         LINE#         231
  C:7EE1H         LINE#         232
  C:7EE2H         LINE#         233
  C:7EE4H         LINE#         234
  C:7EE5H         LINE#         235
  C:7EE7H         LINE#         237
  C:7EEAH         LINE#         238
  C:7EEBH         LINE#         239
  C:7EEDH         LINE#         240
  C:7EEEH         LINE#         241
  C:7EF1H         LINE#         242
  C:7EF2H         LINE#         243
BL51 BANKED LINKER/LOCATER V6.22                                                      02/03/2015  17:48:48  PAGE 96


  C:7EF3H         LINE#         244
  C:7EF4H         LINE#         246
  C:7EF7H         LINE#         247
  C:7EF8H         LINE#         248
  C:7EF9H         LINE#         249
  C:7EFAH         LINE#         250
  C:7EFBH         LINE#         251
  C:7EFCH         LINE#         254
  C:7EFDH         LINE#         255
  C:7EFFH         LINE#         256
  C:7F00H         LINE#         259
  C:7F01H         LINE#         260
  C:7F04H         LINE#         261
  C:7F05H         LINE#         263
  C:7F06H         LINE#         264
  C:7F08H         LINE#         265
  C:7F09H         LINE#         266
  C:7F0BH         LINE#         270
  C:7F0CH         LINE#         271
  C:7F0FH         LINE#         272
  C:7F10H         LINE#         274
  C:7F12H         LINE#         279
  C:7F15H         LINE#         280
  C:7F16H         LINE#         281
  C:7F17H         LINE#         282
  C:7F18H         LINE#         283
  C:7F19H         LINE#         284
  C:7F1AH         LINE#         289
  C:8DE5H         LINE#         316
  C:8DE6H         LINE#         318
  C:8DE8H         LINE#         320
  C:8DEAH         LINE#         322
  C:8DEBH         LINE#         324
  C:8DECH         LINE#         328
  C:8DEDH         LINE#         330
  C:8DEFH         LINE#         332
  C:8DF0H         LINE#         334
  C:8DF2H         LINE#         336
  C:8DF4H         LINE#         340
  C:8DF6H         LINE#         342
  C:8DF7H         LINE#         346
  C:8DF8H         LINE#         350
  -------         ENDMOD        CRC

  -------         MODULE        ?C?FPADD
  C:333EH         PUBLIC        ?C?FPADD
  C:333AH         PUBLIC        ?C?FPSUB
  -------         ENDMOD        ?C?FPADD

  -------         MODULE        ?C?FPMUL
  C:342FH         PUBLIC        ?C?FPMUL
  -------         ENDMOD        ?C?FPMUL

  -------         MODULE        ?C?FPDIV
  C:3538H         PUBLIC        ?C?FPDIV
  -------         ENDMOD        ?C?FPDIV

BL51 BANKED LINKER/LOCATER V6.22                                                      02/03/2015  17:48:48  PAGE 97


  -------         MODULE        ?C?FCAST
  C:35DFH         PUBLIC        ?C?FCASTC
  C:35DAH         PUBLIC        ?C?FCASTI
  C:35D5H         PUBLIC        ?C?FCASTL
  -------         ENDMOD        ?C?FCAST

  -------         MODULE        PRINTF
  X:003DH         PUBLIC        ?_PRINTF?BYTE
  X:003DH         PUBLIC        ?_SPRINTF?BYTE
  C:47BCH         PUBLIC        _PRINTF
  C:47B6H         PUBLIC        _SPRINTF
  -------         ENDMOD        PRINTF

  -------         MODULE        ?C?FPROUND
  C:365DH         PUBLIC        ?C?FPROUND
  -------         ENDMOD        ?C?FPROUND

  -------         MODULE        ?C?FPCONVERT
  C:369AH         PUBLIC        ?C?FPCONVERT
  -------         ENDMOD        ?C?FPCONVERT

  -------         MODULE        ?C?FTNPWR
  C:37CFH         PUBLIC        ?C?FTNPWR
  -------         ENDMOD        ?C?FTNPWR

  -------         MODULE        ?C?COPY
  C:38DFH         PUBLIC        ?C?COPY
  -------         ENDMOD        ?C?COPY

  -------         MODULE        ?C?CLDPTR
  C:3905H         PUBLIC        ?C?CLDPTR
  -------         ENDMOD        ?C?CLDPTR

  -------         MODULE        ?C?CLDOPTR
  C:391EH         PUBLIC        ?C?CLDOPTR
  -------         ENDMOD        ?C?CLDOPTR

  -------         MODULE        ?C?CSTPTR
  C:394BH         PUBLIC        ?C?CSTPTR
  -------         ENDMOD        ?C?CSTPTR

  -------         MODULE        ?C?IILDX
  C:395DH         PUBLIC        ?C?IILDX
  -------         ENDMOD        ?C?IILDX

  -------         MODULE        ?C?ILDIX
  C:3973H         PUBLIC        ?C?ILDIX
  -------         ENDMOD        ?C?ILDIX

  -------         MODULE        ?C?ULDIV
  C:39C5H         PUBLIC        ?C?ULDIV
  -------         ENDMOD        ?C?ULDIV

  -------         MODULE        ?C?LNEG
  C:3A57H         PUBLIC        ?C?LNEG
  -------         ENDMOD        ?C?LNEG

BL51 BANKED LINKER/LOCATER V6.22                                                      02/03/2015  17:48:48  PAGE 98


  -------         MODULE        ?C?LSHL
  C:3A65H         PUBLIC        ?C?LSHL
  -------         ENDMOD        ?C?LSHL

  -------         MODULE        ?C?LLDIDATA0
  C:3A78H         PUBLIC        ?C?LLDIDATA0
  -------         ENDMOD        ?C?LLDIDATA0

  -------         MODULE        ?C?LSTIDATA
  C:3A85H         PUBLIC        ?C?LSTIDATA
  -------         ENDMOD        ?C?LSTIDATA

  -------         MODULE        ?C?LSTXDATA
  C:3A91H         PUBLIC        ?C?LSTXDATA
  -------         ENDMOD        ?C?LSTXDATA

  -------         MODULE        ?C?PLDIXDATA
  C:3A9DH         PUBLIC        ?C?PLDIXDATA
  -------         ENDMOD        ?C?PLDIXDATA

  -------         MODULE        ?C?PSTXDATA
  C:3AB4H         PUBLIC        ?C?PSTXDATA
  -------         ENDMOD        ?C?PSTXDATA

  -------         MODULE        ?C?CCASE
  C:3ABDH         PUBLIC        ?C?CCASE
  -------         ENDMOD        ?C?CCASE

  -------         MODULE        ?C?ICALL
  C:3AE3H         PUBLIC        ?C?ICALL
  C:3AE7H         PUBLIC        ?C?ICALL2
  -------         ENDMOD        ?C?ICALL

  -------         MODULE        STRNCMP
  X:0005H         PUBLIC        ?_strncmp?BYTE
  C:7F1BH         PUBLIC        _strncmp
  -------         ENDMOD        STRNCMP

  -------         MODULE        ?C?MEMCMP
  C:3C6FH         PUBLIC        ?C?MEMCMP
  -------         ENDMOD        ?C?MEMCMP

  -------         MODULE        ?C?MEMSET
  C:3C93H         PUBLIC        ?C?MEMSET
  -------         ENDMOD        ?C?MEMSET

*** WARNING L15: MULTIPLE CALL TO SEGMENT
    SEGMENT: ?PR?PRINTF?PRINTF
    CALLER1: ?C_C51STARTUP
    CALLER2: ?PR?VEX0_ISR?ISRFRAME

*** WARNING L15: MULTIPLE CALL TO SEGMENT
    SEGMENT: ?PR?_VTIMER1START?TIMERFUNC
    CALLER1: ?C_C51STARTUP
    CALLER2: ?PR?VEX1_ISR?ISRFRAME

*** WARNING L15: MULTIPLE CALL TO SEGMENT
BL51 BANKED LINKER/LOCATER V6.22                                                      02/03/2015  17:48:48  PAGE 99


    SEGMENT: ?PR?_VTIMERCLKSEL?TIMERFUNC
    CALLER1: ?C_C51STARTUP
    CALLER2: ?PR?VEX1_ISR?ISRFRAME

Program Size: data=104.2 xdata=1405 code=36476
LINK/LOCATE RUN COMPLETE.  3 WARNING(S),  0 ERROR(S)
