BL51 BANKED LINKER/LOCATER V6.22                                                        11/23/2016  11:58:16  PAGE 1


BL51 BANKED LINKER/LOCATER V6.22, INVOKED BY:
C:\KEIL\C51\BIN\BL51.EXE .\ObjFile\Z8_STARTUP.obj, .\ObjFile\Main.obj, .\ObjFile\HardApiAsm.obj, .\ObjFile\TbcFunc.obj, 
>> .\ObjFile\OtpFunc.obj, .\ObjFile\LcdFunc.obj, .\ObjFile\AdcFunc.obj, .\ObjFile\ScuFunc.obj, .\ObjFile\UartFunc.obj, .
>> \ObjFile\TimerFunc.obj, .\ObjFile\WdtFunc.obj, .\ObjFile\Hmac.obj, .\ObjFile\Sha1.obj, .\ObjFile\I2C.obj, .\ObjFile\U
>> c8118.obj, .\ObjFile\IsrFrame.obj, .\ObjFile\OtpFrame.obj, .\ObjFile\AdcFrame.obj, .\ObjFile\SM4Process.obj, .\ObjFil
>> e\UartFrame.obj, .\ObjFile\PUTCHAR.obj, .\ObjFile\Debug.obj, .\ObjFile\Crc.obj, .\SrcFile\Lib\Z8D16R_SM4_L_V1.0.LIB, 
>> .\ObjFile\BigApiAsm.obj TO .\ObjFile\Z8D16R_2 PRINT (.\LstFile\Z8D16R_2.m51) RAMSIZE (256) DISABLEWARNING (16) CODE (
>> 0X0000-0XBFFF) XDATA (0X0000-0X0BFF)


MEMORY MODEL: LARGE WITH FLOATING POINT ARITHMETIC


INPUT MODULES INCLUDED:
  .\ObjFile\Z8_STARTUP.obj (?C_STARTUP)
  .\ObjFile\Main.obj (MAIN)
  .\ObjFile\HardApiAsm.obj (HARDAPIASM)
  .\ObjFile\TbcFunc.obj (TBCFUNC)
  .\ObjFile\OtpFunc.obj (OTPFUNC)
  .\ObjFile\LcdFunc.obj (LCDFUNC)
  .\ObjFile\AdcFunc.obj (ADCFUNC)
  .\ObjFile\ScuFunc.obj (SCUFUNC)
  .\ObjFile\UartFunc.obj (UARTFUNC)
  .\ObjFile\TimerFunc.obj (TIMERFUNC)
  .\ObjFile\WdtFunc.obj (WDTFUNC)
  .\ObjFile\Hmac.obj (HMAC)
  .\ObjFile\Sha1.obj (SHA1)
  .\ObjFile\I2C.obj (I2C)
  .\ObjFile\Uc8118.obj (UC8118)
  .\ObjFile\IsrFrame.obj (ISRFRAME)
  .\ObjFile\OtpFrame.obj (OTPFRAME)
  .\ObjFile\AdcFrame.obj (ADCFRAME)
  .\ObjFile\SM4Process.obj (SM4PROCESS)
  .\ObjFile\UartFrame.obj (UARTFRAME)
  .\ObjFile\PUTCHAR.obj (PUTCHAR)
  .\ObjFile\Debug.obj (DEBUG)
  .\ObjFile\Crc.obj (CRC)
  .\SrcFile\Lib\Z8D16R_SM4_L_V1.0.LIB (SM4)
  .\ObjFile\BigApiAsm.obj (BIGAPIASM)
  C:\KEIL\C51\LIB\C51FPL.LIB (?C?FPADD)
  C:\KEIL\C51\LIB\C51FPL.LIB (?C?FPMUL)
  C:\KEIL\C51\LIB\C51FPL.LIB (?C?FPDIV)
  C:\KEIL\C51\LIB\C51FPL.LIB (?C?FPCMP)
  C:\KEIL\C51\LIB\C51FPL.LIB (?C?FPNEG)
  C:\KEIL\C51\LIB\C51FPL.LIB (?C?FCAST)
  C:\KEIL\C51\LIB\C51FPL.LIB (?C?CASTF)
  C:\KEIL\C51\LIB\C51FPL.LIB (FABS)
  C:\KEIL\C51\LIB\C51FPL.LIB (?C?FPGETOPN)
  C:\KEIL\C51\LIB\C51L.LIB (?C_INIT)
  C:\KEIL\C51\LIB\C51L.LIB (?C?COPY)
  C:\KEIL\C51\LIB\C51L.LIB (?C?CLDPTR)
  C:\KEIL\C51\LIB\C51L.LIB (?C?CLDOPTR)
  C:\KEIL\C51\LIB\C51L.LIB (?C?CSTPTR)
  C:\KEIL\C51\LIB\C51L.LIB (?C?CSTOPTR)
  C:\KEIL\C51\LIB\C51L.LIB (?C?IMUL)
  C:\KEIL\C51\LIB\C51L.LIB (?C?UIDIV)
  C:\KEIL\C51\LIB\C51L.LIB (?C?IILDX)
  C:\KEIL\C51\LIB\C51L.LIB (?C?ILDIX)
BL51 BANKED LINKER/LOCATER V6.22                                                      11/23/2016  11:58:16  PAGE 2


  C:\KEIL\C51\LIB\C51L.LIB (?C?ILDPTR)
  C:\KEIL\C51\LIB\C51L.LIB (?C?ISTPTR)
  C:\KEIL\C51\LIB\C51L.LIB (?C?LMUL)
  C:\KEIL\C51\LIB\C51L.LIB (?C?ULDIV)
  C:\KEIL\C51\LIB\C51L.LIB (?C?LNOT)
  C:\KEIL\C51\LIB\C51L.LIB (?C?LNEG)
  C:\KEIL\C51\LIB\C51L.LIB (?C?ULCMP)
  C:\KEIL\C51\LIB\C51L.LIB (?C?ULSHR)
  C:\KEIL\C51\LIB\C51L.LIB (?C?LSHL)
  C:\KEIL\C51\LIB\C51L.LIB (?C?LLDPTR)
  C:\KEIL\C51\LIB\C51L.LIB (?C?LSTPTR)
  C:\KEIL\C51\LIB\C51L.LIB (?C?LLDIDATA)
  C:\KEIL\C51\LIB\C51L.LIB (?C?LLDCODE)
  C:\KEIL\C51\LIB\C51L.LIB (?C?LLDIDATA0)
  C:\KEIL\C51\LIB\C51L.LIB (?C?LSTIDATA)
  C:\KEIL\C51\LIB\C51L.LIB (?C?LSTXDATA)
  C:\KEIL\C51\LIB\C51L.LIB (?C?LSTKIDATA)
  C:\KEIL\C51\LIB\C51L.LIB (?C?LSTKXDATA)
  C:\KEIL\C51\LIB\C51L.LIB (?C?OFFXADD)
  C:\KEIL\C51\LIB\C51L.LIB (ABS)
  C:\KEIL\C51\LIB\C51L.LIB (?C?MEMCMP)
  C:\KEIL\C51\LIB\C51L.LIB (?C?MEMSET)
  C:\KEIL\C51\LIB\C51L.LIB (?C?LLDXDATA)
  C:\KEIL\C51\LIB\C51L.LIB (?C?LLDPDATA)
  C:\KEIL\C51\LIB\C51L.LIB (?C?LSTPDATA)


LINK MAP OF MODULE:  .\ObjFile\Z8D16R_2 (?C_STARTUP)


            TYPE    BASE      LENGTH    RELOCATION   SEGMENT NAME
            -----------------------------------------------------

            * * * * * * *   D A T A   M E M O R Y   * * * * * * *
            REG     0000H     0008H     ABSOLUTE     "REG BANK 0"
                    0008H     0028H                  *** GAP ***
            IDATA   0030H     0001H     ABSOLUTE     
            IDATA   0031H     0001H     ABSOLUTE     
            IDATA   0032H     0004H     ABSOLUTE     
            IDATA   0036H     0001H     ABSOLUTE     
            IDATA   0037H     0001H     ABSOLUTE     
            IDATA   0038H     0001H     ABSOLUTE     
            IDATA   0039H     0001H     ABSOLUTE     
            IDATA   003AH     0004H     ABSOLUTE     
            IDATA   003EH     0001H     ABSOLUTE     
            IDATA   003FH     0001H     ABSOLUTE     
            IDATA   0040H     0020H     ABSOLUTE     
            IDATA   0060H     0008H     ABSOLUTE     
            IDATA   0068H     0004H     ABSOLUTE     
            IDATA   006CH     0004H     ABSOLUTE     
            IDATA   0070H     0010H     ABSOLUTE     
            IDATA   0080H     0010H     ABSOLUTE     
            IDATA   0090H     0010H     ABSOLUTE     
            IDATA   00A0H     0010H     ABSOLUTE     
            IDATA   00B0H     0001H     ABSOLUTE     
            IDATA   00B1H     0001H     ABSOLUTE     
            IDATA   00B2H     0001H     ABSOLUTE     
BL51 BANKED LINKER/LOCATER V6.22                                                      11/23/2016  11:58:16  PAGE 3


            IDATA   00B3H     0001H     ABSOLUTE     
            IDATA   00B4H     0004H     ABSOLUTE     
            IDATA   00B8H     0001H     ABSOLUTE     
            IDATA   00B9H     0001H     ABSOLUTE     
            IDATA   00BAH     0001H     ABSOLUTE     
            IDATA   00BBH     0001H     ABSOLUTE     
            IDATA   00BCH     0001H     ABSOLUTE     
            IDATA   00BDH     0001H     ABSOLUTE     
            IDATA   00BEH     0004H     ABSOLUTE     
            IDATA   00C2H     0002H     ABSOLUTE     
            IDATA   00C4H     0004H     ABSOLUTE     
            IDATA   00C8H     0002H     ABSOLUTE     
            IDATA   00CAH     0001H     ABSOLUTE     
            IDATA   00CBH     0001H     ABSOLUTE     
            IDATA   00CCH     0001H     UNIT         ?STACK

            * * * * * * *  X D A T A   M E M O R Y  * * * * * * *
            XDATA   0000H     0460H     UNIT         _XDATA_GROUP_
            XDATA   0460H     009AH     UNIT         ?XD?_OTPACTIVEVERIFY?OTPFUNC
            XDATA   04FAH     0090H     UNIT         ?XD?SM4
            XDATA   058AH     0070H     UNIT         ?XD?TBCFUNC
            XDATA   05FAH     006CH     UNIT         ?XD?UC8118
            XDATA   0666H     0058H     UNIT         ?XD?OTPFUNC
            XDATA   06BEH     0033H     UNIT         ?XD?UARTFUNC
            XDATA   06F1H     0033H     UNIT         ?XD?UARTFRAME
            XDATA   0724H     0027H     UNIT         ?XD?RECEIVEDATA_POLL?UARTFUNC
            XDATA   074BH     0016H     UNIT         ?XD?OTPFRAME
            XDATA   0761H     0010H     UNIT         ?XD?_GET2121CHK2?OTPFRAME
            XDATA   0771H     000FH     UNIT         ?XD?_CALTIME?OTPFUNC
            XDATA   0780H     000FH     UNIT         ?XD?_WRITETOROM?I2C
            XDATA   078FH     000EH     UNIT         ?XD?_XRMEMCPY?SM4PROCESS
            XDATA   079DH     000AH     UNIT         ?XD?_WRITEFOURBYTESTOROM?I2C
            XDATA   07A7H     0006H     UNIT         ?XD?_VLCD_STRING_DISPLAY2?LCDFUNC
            XDATA   07ADH     0006H     UNIT         ?XD?UCPOWERDETECT?ADCFRAME
            XDATA   07B3H     0006H     UNIT         ?XD?_U16CRCCOMPUTE?CRC
            XDATA   07B9H     0005H     UNIT         ?XD?_VTIMER1START?TIMERFUNC
            XDATA   07BEH     0003H     UNIT         ?XD?VLCD_STRING_CLEAR2?LCDFUNC
            XDATA   07C1H     0003H     UNIT         ?XD?VLCD_ALL_CLEAR2?LCDFUNC
            XDATA   07C4H     0003H     UNIT         ?XD?VLCD_ALL_DISPLAY2?LCDFUNC
            XDATA   07C7H     0002H     UNIT         ?XD?_VLCD_FLAG_DISPLAY2?LCDFUNC
            XDATA   07C9H     0002H     UNIT         ?XD?_VTIMERCLKSEL?TIMERFUNC
            XDATA   07CBH     0001H     UNIT         ?XD?_VLCD_BCD_DISPLAY2?LCDFUNC

            * * * * * * *   C O D E   M E M O R Y   * * * * * * *
            CODE    0000H     0003H     ABSOLUTE     
            CODE    0003H     0003H     ABSOLUTE     
            CODE    0006H     0004H     UNIT         ?PR?_BYTE2LONG?OTPFUNC
            CODE    000AH     0001H     UNIT         ?PR?SM4_CLOSE?SM4
            CODE    000BH     0003H     ABSOLUTE     
            CODE    000EH     0003H     UNIT         ?PR?_PUTCHAR?PUTCHAR
                    0011H     0002H                  *** GAP ***
            CODE    0013H     0003H     ABSOLUTE     
                    0016H     0005H                  *** GAP ***
            CODE    001BH     0003H     ABSOLUTE     
                    001EH     0005H                  *** GAP ***
            CODE    0023H     0003H     ABSOLUTE     
            CODE    0026H     0E72H     UNIT         ?PR?_USART_TXRSP?UARTFUNC
BL51 BANKED LINKER/LOCATER V6.22                                                      11/23/2016  11:58:16  PAGE 4


            CODE    0E98H     0AB3H     UNIT         ?PR?_VSHA1ONEBLOCK?SHA1
            CODE    194BH     0A8FH     UNIT         ?PR?__SM4_DECRYPT?SM4
            CODE    23DAH     0A62H     UNIT         ?C?LIB_CODE
            CODE    2E3CH     09C9H     UNIT         ?PR?__SM4_ENCRYPT?SM4
            CODE    3805H     0790H     UNIT         ?CO?SM4
            CODE    3F95H     0605H     UNIT         ?PR?_GETOTPTIME?UARTFUNC
            CODE    459AH     04D2H     UNIT         ?PR?VOTP_INITPROCESS?OTPFRAME
            CODE    4A6CH     03EDH     UNIT         ?PR?_EXTRACTHOTP?OTPFUNC
            CODE    4E59H     03E9H     UNIT         ?PR?_GETBASETIME?OTPFRAME
            CODE    5242H     03C6H     UNIT         ?PR?_OTPACTIVEVERIFY?OTPFUNC
            CODE    5608H     035DH     UNIT         ?PR?_COSOPERATION?OTPFUNC
            CODE    5965H     034BH     UNIT         ?PR?_VCOMPVALUE_FIND?TBCFUNC
            CODE    5CB0H     0343H     UNIT         ?PR?IC_TEMPERATURE_TEST?TBCFUNC
            CODE    5FF3H     0334H     UNIT         ?PR?VOTP_TIMETOKEN?OTPFRAME
            CODE    6327H     02B6H     UNIT         ?PR?_SM4_INIT?SM4
            CODE    65DDH     029EH     UNIT         ?PR?_SHA1_CYCLECOMPUTE2?SHA1
            CODE    687BH     029CH     UNIT         ?PR?_HMACEX?HMAC
            CODE    6B17H     024EH     UNIT         ?PR?_SHA1_CYCLECOMPUTE0?SHA1
            CODE    6D65H     023AH     UNIT         ?PR?_SM4_CRYPTO?SM4
            CODE    6F9FH     0226H     UNIT         ?PR?RECEIVEDATA_POLL?UARTFUNC
            CODE    71C5H     0215H     UNIT         ?PR?_SHA1_CYCLECOMPUTE1?SHA1
            CODE    73DAH     0215H     UNIT         ?PR?_SHA1_CYCLECOMPUTE3?SHA1
            CODE    75EFH     01F8H     UNIT         ?CO?TBCFUNC
            CODE    77E7H     01D8H     UNIT         ?PR?_REAL_TMP?TBCFUNC
            CODE    79BFH     01B9H     UNIT         ?PR?_VPAPER_STRING_DISPLAY?UC8118
            CODE    7B78H     01ACH     UNIT         ?PR?_VTEMPVALUE_FIND?TBCFUNC
            CODE    7D24H     01A0H     UNIT         ?PR?_VLCD_BCD_DISPLAY2?LCDFUNC
            CODE    7EC4H     0180H     UNIT         ?CO?HMAC
            CODE    8044H     0175H     UNIT         ?PR?_GENOTPOCRA?OTPFUNC
            CODE    81B9H     0175H     UNIT         ?PR?_SHA1DATA?SHA1
            CODE    832EH     0169H     UNIT         ?PR?_ALGSYMMMACFUN2?SM4PROCESS
            CODE    8497H     0143H     UNIT         ?CO?UC8118
            CODE    85DAH     0136H     UNIT         ?PR?_VFREQADJ?TBCFUNC
            CODE    8710H     0134H     UNIT         ?PR?_CALTIME?OTPFUNC
            CODE    8844H     0111H     UNIT         ?PR?_GET2121CHK2?OTPFRAME
            CODE    8955H     00FAH     UNIT         ?PR?_GETTIMEFACTOR?OTPFUNC
            CODE    8A4FH     00EAH     UNIT         ?PR?VSYSINIT?MAIN
            CODE    8B39H     00C1H     UNIT         ?PR?_VLCD_STRING_DISPLAY2?LCDFUNC
            CODE    8BFAH     00BDH     UNIT         ?CO?LCDFUNC
            CODE    8CB7H     00BDH     UNIT         ?PR?_READFROMROM?I2C
            CODE    8D74H     00B6H     UNIT         ?PR?_VDELAY?DEBUG
            CODE    8E2AH     00B1H     UNIT         ?C_C51STARTUP
            CODE    8EDBH     00A8H     UNIT         ?PR?_WRITETOROM?I2C
            CODE    8F83H     00A4H     UNIT         ?PR?_HEXTOSTR?OTPFRAME
            CODE    9027H     009FH     UNIT         ?PR?_MEMXOR?SM4PROCESS
            CODE    90C6H     009BH     UNIT         ?PR?_XRMEMCPY?SM4PROCESS
            CODE    9161H     009BH     UNIT         ?PR?SM4DEC_TEST?SM4PROCESS
            CODE    91FCH     0088H     UNIT         ?PR?_U16CRCCOMPUTE?CRC
            CODE    9284H     0083H     UNIT         ?PR?ULGETTBCCOUNTVLAUE?UARTFUNC
            CODE    9307H     0082H     UNIT         ?PR?VEX1_ISR?ISRFRAME
            CODE    9389H     0075H     UNIT         ?PR?_VTBC_ADJ?TBCFUNC
            CODE    93FEH     0074H     UNIT         ?PR?RECVACK?I2C
            CODE    9472H     006DH     UNIT         ?PR?_VLCD_FLAG_DISPLAY2?LCDFUNC
            CODE    94DFH     006CH     UNIT         ?PR?_VTIMER1START?TIMERFUNC
            CODE    954BH     006CH     UNIT         ?PR?_VTIMER1START1?TIMERFUNC
            CODE    95B7H     006BH     UNIT         ?PR?BASE_TIME?TBCFUNC
            CODE    9622H     0067H     UNIT         ?PR?_COMP_DIFFERENCE_10PPM?TBCFUNC
BL51 BANKED LINKER/LOCATER V6.22                                                      11/23/2016  11:58:16  PAGE 5


            CODE    9689H     0066H     UNIT         ?PR?UCPOWERDETECT?ADCFRAME
            CODE    96EFH     0064H     UNIT         ?PR?_UCSYSCLKCHANGE?DEBUG
            CODE    9753H     0061H     UNIT         ?PR?LUT_SPI_WRITE_BB_WW_VCOM?UC8118
            CODE    97B4H     0061H     UNIT         ?PR?LUT_SPI_WRITE_BB_WW_B?UC8118
            CODE    9815H     0061H     UNIT         ?PR?LUT_SPI_WRITE_BB_WW_W?UC8118
            CODE    9876H     0061H     UNIT         ?PR?LUT_SPI_WRITE_WB_BW_VCOM?UC8118
            CODE    98D7H     0061H     UNIT         ?PR?LUT_SPI_WRITE_WB_BW_B?UC8118
            CODE    9938H     0061H     UNIT         ?PR?LUT_SPI_WRITE_WB_BW_W?UC8118
            CODE    9999H     0060H     UNIT         ?PR?SHA1_TEST?SM4PROCESS
            CODE    99F9H     005EH     UNIT         ?PR?VSI_ISR?ISRFRAME
            CODE    9A57H     0058H     UNIT         ?PR?_CONVERT?SM4
            CODE    9AAFH     0056H     UNIT         ?PR?MAIN?MAIN
            CODE    9B05H     0056H     UNIT         ?PR?VTF0_ISR?ISRFRAME
            CODE    9B5BH     0055H     UNIT         ?PR?_VTIMERCLKSEL?TIMERFUNC
            CODE    9BB0H     0055H     UNIT         ?PR?_VTIMERCLKSEL1?TIMERFUNC
            CODE    9C05H     0054H     UNIT         ?PR?_SPI_DELAY?UC8118
            CODE    9C59H     0052H     UNIT         ?PR?PAPER_ALL_CLEAR?UC8118
            CODE    9CABH     0052H     UNIT         ?PR?VEX0_ISR?ISRFRAME
            CODE    9CFDH     0052H     UNIT         ?PR?VTF1_ISR?ISRFRAME
            CODE    9D4FH     004FH     UNIT         ?PR?_VPAPER_BCD_DISPLAY?UC8118
            CODE    9D9EH     004EH     UNIT         ?CO?SM4PROCESS
            CODE    9DECH     0044H     UNIT         ?PR?_VUARTSENDDATA?UARTFUNC
            CODE    9E30H     003FH     UNIT         ?PR?_WRITEBYTE?I2C
            CODE    9E6FH     003FH     UNIT         ?PR?UC8118_SETTING?UC8118
            CODE    9EAEH     003DH     UNIT         ?PR?VOTP_INVALIDPROCESS?OTPFRAME
            CODE    9EEBH     0036H     UNIT         ?PR?_WRITEFOURBYTESTOROM?I2C
            CODE    9F21H     0032H     UNIT         ?CO?UARTFUNC
            CODE    9F53H     0030H     UNIT         ?PR?UIADC_GETDATA?ADCFUNC
            CODE    9F83H     0030H     UNIT         ?PR?SPI_INIT?UC8118
            CODE    9FB3H     0030H     UNIT         ?PR?_EPD_W21_WRITE_CMD_DATA?UC8118
            CODE    9FE3H     002FH     UNIT         ?PR?_VLCD_DOT_DISPLAY?LCDFUNC
            CODE    A012H     002DH     UNIT         ?PR?VLCD_ALL_DISPLAY2?LCDFUNC
            CODE    A03FH     002CH     UNIT         ?PR?VLCD_STRING_CLEAR2?LCDFUNC
            CODE    A06BH     002CH     UNIT         ?PR?VLCD_ALL_CLEAR2?LCDFUNC
            CODE    A097H     0025H     UNIT         ?PR?_BIGAPIASM
            CODE    A0BCH     0024H     UNIT         ?PR?_SPI_WRITE?UC8118
            CODE    A0E0H     0021H     UNIT         ?PR?_HARDAPIASM
            CODE    A101H     0021H     UNIT         ?PR?_VLCDINIT?LCDFUNC
            CODE    A122H     0021H     UNIT         ?PR?EPD_W21_INIT?UC8118
            CODE    A143H     001CH     UNIT         ?PR?_SM4_VERSION?SM4
            CODE    A15FH     001BH     UNIT         ?PR?IIC_HOSTINIT?I2C
            CODE    A17AH     0019H     UNIT         ?PR?ENTERSTANDBY?MAIN
            CODE    A193H     0019H     UNIT         ?PR?_VDELAY200US?ADCFUNC
            CODE    A1ACH     0019H     UNIT         ?PR?_VADCINIT?ADCFUNC
            CODE    A1C5H     0018H     UNIT         ?PR?_MDELAY?I2C
            CODE    A1DDH     0018H     UNIT         ?PR?_DRIVER_DELAY_XMS?UC8118
            CODE    A1F5H     0018H     UNIT         ?PR?LUT_SPI_WRITE_BB_WW?UC8118
            CODE    A20DH     0018H     UNIT         ?PR?LUT_SPI_WRITE_WB_BW?UC8118
            CODE    A225H     0017H     UNIT         ?PR?_VSHA1GETDEFAULTIV?SHA1
            CODE    A23CH     0015H     UNIT         ?C_INITSEG
            CODE    A251H     0014H     UNIT         ?PR?UCUARTGETBYTE?UARTFUNC
            CODE    A265H     0014H     UNIT         ?PR?_VUARTPUTBYTE?UARTFUNC
            CODE    A279H     0014H     UNIT         ?CO?SHA1
            CODE    A28DH     0014H     UNIT         ?PR?_UCENDIANCHANGE?CRC
            CODE    A2A1H     0013H     UNIT         ?PR?VADCCLOSE?ADCFUNC
            CODE    A2B4H     0013H     UNIT         ?PR?_DECTOBCD?OTPFRAME
            CODE    A2C7H     0012H     UNIT         ?CO?OTPFRAME
BL51 BANKED LINKER/LOCATER V6.22                                                      11/23/2016  11:58:16  PAGE 6


            CODE    A2D9H     0011H     UNIT         ?PR?VSCU_WAKEUPTIMERWAKEUP_1HOUR?TBCFUNC
            CODE    A2EAH     0011H     UNIT         ?PR?VSCU_WAKEUPTIMERWAKEUP_1MIN?TBCFUNC
            CODE    A2FBH     0010H     UNIT         ?PR?VUARTINIT?UARTFUNC
            CODE    A30BH     0010H     UNIT         ?PR?POWEROFF_SLEEP?UC8118
            CODE    A31BH     000FH     UNIT         ?PR?VCLRWDTCOUNTER?WDTFUNC
            CODE    A32AH     000FH     UNIT         ?PR?DISPLAY?UC8118
            CODE    A339H     000EH     UNIT         ?PR?I2C_DELAY?I2C
            CODE    A347H     000DH     UNIT         ?PR?_VDELAY1MS?LCDFUNC
            CODE    A354H     000DH     UNIT         ?PR?_FABS?FABS
            CODE    A361H     000CH     UNIT         ?PR?_VWDTINIT?WDTFUNC
            CODE    A36DH     000CH     UNIT         ?PR?I2C_STOP?I2C
            CODE    A379H     000CH     UNIT         ?PR?_ABS?ABS
            CODE    A385H     000BH     UNIT         ?PR?VTBCINIT?TBCFUNC
            CODE    A390H     000AH     UNIT         ?PR?_LUT_SPI_WRITE?UC8118
            CODE    A39AH     0009H     UNIT         ?PR?I2C_START?I2C
            CODE    A3A3H     0009H     UNIT         ?PR?SENDNOACK?I2C
            CODE    A3ACH     0009H     UNIT         ?PR?ELCPAPER_INIT?UC8118



OVERLAY MAP OF MODULE:   .\ObjFile\Z8D16R_2 (?C_STARTUP)


SEGMENT                                            XDATA_GROUP
  +--> CALLED SEGMENT                            START    LENGTH
----------------------------------------------------------------
?C_C51STARTUP                                    -----    -----
  +--> ?PR?MAIN?MAIN
  +--> ?C_INITSEG

?PR?MAIN?MAIN                                    0000H    0001H
  +--> ?PR?VSYSINIT?MAIN
  +--> ?PR?_VWDTINIT?WDTFUNC
  +--> ?PR?VOTP_INITPROCESS?OTPFRAME
  +--> ?PR?VOTP_TIMETOKEN?OTPFRAME
  +--> ?PR?VOTP_INVALIDPROCESS?OTPFRAME

?PR?VSYSINIT?MAIN                                -----    -----
  +--> ?PR?ELCPAPER_INIT?UC8118
  +--> ?PR?PAPER_ALL_CLEAR?UC8118
  +--> ?PR?VTBCINIT?TBCFUNC
  +--> ?PR?VSCU_WAKEUPTIMERWAKEUP_1MIN?TBCFUNC
  +--> ?PR?_VFREQADJ?TBCFUNC

?PR?ELCPAPER_INIT?UC8118                         -----    -----
  +--> ?PR?SPI_INIT?UC8118
  +--> ?PR?EPD_W21_INIT?UC8118
  +--> ?PR?UC8118_SETTING?UC8118

?PR?EPD_W21_INIT?UC8118                          -----    -----
  +--> ?PR?_SPI_DELAY?UC8118

?PR?_SPI_DELAY?UC8118                            0001H    0006H

?PR?UC8118_SETTING?UC8118                        -----    -----
  +--> ?PR?_EPD_W21_WRITE_CMD_DATA?UC8118
  +--> ?PR?_DRIVER_DELAY_XMS?UC8118
BL51 BANKED LINKER/LOCATER V6.22                                                      11/23/2016  11:58:16  PAGE 7


  +--> ?PR?_LUT_SPI_WRITE?UC8118

?PR?_EPD_W21_WRITE_CMD_DATA?UC8118               -----    -----
  +--> ?PR?_SPI_WRITE?UC8118

?PR?_LUT_SPI_WRITE?UC8118                        -----    -----
  +--> ?PR?LUT_SPI_WRITE_WB_BW?UC8118
  +--> ?PR?LUT_SPI_WRITE_BB_WW?UC8118

?PR?LUT_SPI_WRITE_WB_BW?UC8118                   -----    -----
  +--> ?PR?LUT_SPI_WRITE_WB_BW_VCOM?UC8118
  +--> ?PR?_DRIVER_DELAY_XMS?UC8118
  +--> ?PR?LUT_SPI_WRITE_WB_BW_B?UC8118
  +--> ?PR?LUT_SPI_WRITE_WB_BW_W?UC8118

?PR?LUT_SPI_WRITE_WB_BW_VCOM?UC8118              0001H    0004H
  +--> ?PR?_EPD_W21_WRITE_CMD_DATA?UC8118
  +--> ?CO?UC8118
  +--> ?PR?_DRIVER_DELAY_XMS?UC8118

?PR?LUT_SPI_WRITE_WB_BW_B?UC8118                 0001H    0004H
  +--> ?PR?_EPD_W21_WRITE_CMD_DATA?UC8118
  +--> ?CO?UC8118
  +--> ?PR?_DRIVER_DELAY_XMS?UC8118

?PR?LUT_SPI_WRITE_WB_BW_W?UC8118                 0001H    0004H
  +--> ?PR?_EPD_W21_WRITE_CMD_DATA?UC8118
  +--> ?CO?UC8118
  +--> ?PR?_DRIVER_DELAY_XMS?UC8118

?PR?LUT_SPI_WRITE_BB_WW?UC8118                   -----    -----
  +--> ?PR?LUT_SPI_WRITE_BB_WW_VCOM?UC8118
  +--> ?PR?_DRIVER_DELAY_XMS?UC8118
  +--> ?PR?LUT_SPI_WRITE_BB_WW_B?UC8118
  +--> ?PR?LUT_SPI_WRITE_BB_WW_W?UC8118

?PR?LUT_SPI_WRITE_BB_WW_VCOM?UC8118              0001H    0004H
  +--> ?PR?_EPD_W21_WRITE_CMD_DATA?UC8118
  +--> ?CO?UC8118
  +--> ?PR?_DRIVER_DELAY_XMS?UC8118

?PR?LUT_SPI_WRITE_BB_WW_B?UC8118                 0001H    0004H
  +--> ?PR?_EPD_W21_WRITE_CMD_DATA?UC8118
  +--> ?CO?UC8118
  +--> ?PR?_DRIVER_DELAY_XMS?UC8118

?PR?LUT_SPI_WRITE_BB_WW_W?UC8118                 0001H    0004H
  +--> ?PR?_EPD_W21_WRITE_CMD_DATA?UC8118
  +--> ?CO?UC8118
  +--> ?PR?_DRIVER_DELAY_XMS?UC8118

?PR?PAPER_ALL_CLEAR?UC8118                       -----    -----
  +--> ?PR?_EPD_W21_WRITE_CMD_DATA?UC8118
  +--> ?PR?DISPLAY?UC8118

?PR?DISPLAY?UC8118                               -----    -----
  +--> ?PR?_EPD_W21_WRITE_CMD_DATA?UC8118
BL51 BANKED LINKER/LOCATER V6.22                                                      11/23/2016  11:58:16  PAGE 8



?PR?_VFREQADJ?TBCFUNC                            0043H    000BH
  +--> ?PR?_VADCINIT?ADCFUNC
  +--> ?PR?UIADC_GETDATA?ADCFUNC
  +--> ?PR?_REAL_TMP?TBCFUNC
  +--> ?PR?_VTEMPVALUE_FIND?TBCFUNC
  +--> ?PR?_VCOMPVALUE_FIND?TBCFUNC
  +--> ?PR?_VTBC_ADJ?TBCFUNC
  +--> ?PR?VADCCLOSE?ADCFUNC
  +--> ?PR?_COMP_DIFFERENCE_10PPM?TBCFUNC

?PR?_VADCINIT?ADCFUNC                            -----    -----
  +--> ?PR?_VDELAY200US?ADCFUNC

?PR?UIADC_GETDATA?ADCFUNC                        -----    -----
  +--> ?PR?_VDELAY200US?ADCFUNC

?PR?_REAL_TMP?TBCFUNC                            004EH    0005H
  +--> ?CO?TBCFUNC

?PR?_VTEMPVALUE_FIND?TBCFUNC                     004EH    000BH
  +--> ?CO?TBCFUNC
  +--> ?PR?_FABS?FABS

?PR?_VCOMPVALUE_FIND?TBCFUNC                     004EH    0021H
  +--> ?CO?TBCFUNC

?PR?_VTBC_ADJ?TBCFUNC                            004EH    0006H
  +--> ?PR?_ABS?ABS

?PR?_COMP_DIFFERENCE_10PPM?TBCFUNC               -----    -----
  +--> ?PR?_FABS?FABS
  +--> ?PR?VSCU_WAKEUPTIMERWAKEUP_1HOUR?TBCFUNC
  +--> ?PR?VSCU_WAKEUPTIMERWAKEUP_1MIN?TBCFUNC

?PR?VOTP_INITPROCESS?OTPFRAME                    0001H    0042H
  +--> ?CO?OTPFRAME
  +--> ?PR?_VPAPER_STRING_DISPLAY?UC8118
  +--> ?PR?SM4DEC_TEST?SM4PROCESS
  +--> ?PR?SHA1_TEST?SM4PROCESS
  +--> ?PR?_READFROMROM?I2C
  +--> ?PR?_COSOPERATION?OTPFUNC
  +--> ?PR?_GETBASETIME?OTPFRAME
  +--> ?PR?_USART_TXRSP?UARTFUNC
  +--> ?PR?ULGETTBCCOUNTVLAUE?UARTFUNC
  +--> ?PR?PAPER_ALL_CLEAR?UC8118
  +--> ?PR?IC_TEMPERATURE_TEST?TBCFUNC
  +--> ?PR?_VFREQADJ?TBCFUNC
  +--> ?PR?VSCU_WAKEUPTIMERWAKEUP_1HOUR?TBCFUNC
  +--> ?PR?VUARTINIT?UARTFUNC

?PR?_VPAPER_STRING_DISPLAY?UC8118                0043H    0006H
  +--> ?CO?UC8118
  +--> ?PR?_VPAPER_BCD_DISPLAY?UC8118
  +--> ?PR?_EPD_W21_WRITE_CMD_DATA?UC8118
  +--> ?PR?DISPLAY?UC8118

BL51 BANKED LINKER/LOCATER V6.22                                                      11/23/2016  11:58:16  PAGE 9


?PR?_VPAPER_BCD_DISPLAY?UC8118                   -----    -----
  +--> ?CO?UC8118

?PR?SM4DEC_TEST?SM4PROCESS                       0043H    0030H
  +--> ?CO?SM4PROCESS
  +--> ?PR?_SM4_INIT?SM4
  +--> ?PR?_SM4_CRYPTO?SM4

?PR?_SM4_INIT?SM4                                0098H    0009H
  +--> ?PR?_CONVERT?SM4
  +--> ?CO?SM4

?PR?_CONVERT?SM4                                 00DCH    0001H

?PR?_SM4_CRYPTO?SM4                              0098H    0034H
  +--> ?PR?__SM4_DECRYPT?SM4
  +--> ?PR?__SM4_ENCRYPT?SM4

?PR?__SM4_DECRYPT?SM4                            00CCH    0010H
  +--> ?PR?_CONVERT?SM4
  +--> ?CO?SM4

?PR?__SM4_ENCRYPT?SM4                            00CCH    0010H
  +--> ?PR?_CONVERT?SM4
  +--> ?CO?SM4

?PR?SHA1_TEST?SM4PROCESS                         0043H    0032H
  +--> ?CO?SM4PROCESS
  +--> ?PR?_SHA1DATA?SHA1

?PR?_SHA1DATA?SHA1                               02AAH    004CH
  +--> ?PR?_VSHA1GETDEFAULTIV?SHA1
  +--> ?PR?_VSHA1ONEBLOCK?SHA1

?PR?_VSHA1GETDEFAULTIV?SHA1                      -----    -----
  +--> ?CO?SHA1

?PR?_VSHA1ONEBLOCK?SHA1                          02F6H    0159H
  +--> ?PR?_SHA1_CYCLECOMPUTE0?SHA1
  +--> ?PR?_SHA1_CYCLECOMPUTE1?SHA1
  +--> ?PR?_SHA1_CYCLECOMPUTE2?SHA1
  +--> ?PR?_SHA1_CYCLECOMPUTE3?SHA1

?PR?_SHA1_CYCLECOMPUTE0?SHA1                     044FH    000AH

?PR?_SHA1_CYCLECOMPUTE1?SHA1                     044FH    000AH

?PR?_SHA1_CYCLECOMPUTE2?SHA1                     044FH    000AH

?PR?_SHA1_CYCLECOMPUTE3?SHA1                     044FH    000AH

?PR?_READFROMROM?I2C                             0043H    000CH
  +--> ?PR?_WRITEBYTE?I2C
  +--> ?PR?I2C_START?I2C
  +--> ?PR?I2C_DELAY?I2C
  +--> ?PR?SENDNOACK?I2C
  +--> ?PR?I2C_STOP?I2C
BL51 BANKED LINKER/LOCATER V6.22                                                      11/23/2016  11:58:16  PAGE 10



?PR?_WRITEBYTE?I2C                               -----    -----
  +--> ?PR?I2C_START?I2C
  +--> ?PR?I2C_DELAY?I2C
  +--> ?PR?RECVACK?I2C

?PR?I2C_START?I2C                                -----    -----
  +--> ?PR?I2C_DELAY?I2C

?PR?SENDNOACK?I2C                                -----    -----
  +--> ?PR?I2C_DELAY?I2C

?PR?I2C_STOP?I2C                                 -----    -----
  +--> ?PR?I2C_DELAY?I2C

?PR?_COSOPERATION?OTPFUNC                        0043H    0051H
  +--> ?CO?UARTFUNC
  +--> ?PR?_SM4_INIT?SM4
  +--> ?PR?_SM4_CRYPTO?SM4
  +--> ?PR?_GETTIMEFACTOR?OTPFUNC
  +--> ?PR?_GENOTPOCRA?OTPFUNC

?PR?_GETTIMEFACTOR?OTPFUNC                       0094H    0007H
  +--> ?PR?BASE_TIME?TBCFUNC

?PR?BASE_TIME?TBCFUNC                            009BH    0004H
  +--> ?PR?ULGETTBCCOUNTVLAUE?UARTFUNC

?PR?ULGETTBCCOUNTVLAUE?UARTFUNC                  009FH    0003H

?PR?_GENOTPOCRA?OTPFUNC                          0094H    002CH
  +--> ?PR?_HMACEX?HMAC
  +--> ?PR?_EXTRACTHOTP?OTPFUNC

?PR?_HMACEX?HMAC                                 00C0H    01EAH
  +--> ?CO?HMAC
  +--> ?PR?_SHA1DATA?SHA1
  +--> ?PR?_MEMXOR?SM4PROCESS

?PR?_MEMXOR?SM4PROCESS                           02AAH    000EH

?PR?_EXTRACTHOTP?OTPFUNC                         00C0H    001CH

?PR?_GETBASETIME?OTPFRAME                        0043H    0009H

?PR?_USART_TXRSP?UARTFUNC                        0043H    0046H
  +--> ?CO?UARTFUNC
  +--> ?PR?_SM4_INIT?SM4
  +--> ?PR?_SM4_CRYPTO?SM4
  +--> ?PR?_ALGSYMMMACFUN2?SM4PROCESS
  +--> ?PR?_GETOTPTIME?UARTFUNC
  +--> ?PR?_VUARTSENDDATA?UARTFUNC

?PR?_ALGSYMMMACFUN2?SM4PROCESS                   0089H    000FH
  +--> ?PR?_SM4_INIT?SM4
  +--> ?PR?_MEMXOR?SM4PROCESS
  +--> ?PR?_SM4_CRYPTO?SM4
BL51 BANKED LINKER/LOCATER V6.22                                                      11/23/2016  11:58:16  PAGE 11



?PR?_GETOTPTIME?UARTFUNC                         0089H    0009H
  +--> ?PR?BASE_TIME?TBCFUNC

?PR?_VUARTSENDDATA?UARTFUNC                      0089H    0003H

?PR?IC_TEMPERATURE_TEST?TBCFUNC                  0043H    000AH
  +--> ?PR?_VADCINIT?ADCFUNC
  +--> ?PR?UIADC_GETDATA?ADCFUNC
  +--> ?PR?VADCCLOSE?ADCFUNC

?PR?VOTP_TIMETOKEN?OTPFRAME                      0001H    0027H
  +--> ?PR?_GETOTPTIME?UARTFUNC
  +--> ?PR?_DECTOBCD?OTPFRAME
  +--> ?PR?_HEXTOSTR?OTPFRAME
  +--> ?PR?_VPAPER_STRING_DISPLAY?UC8118
  +--> ?PR?BASE_TIME?TBCFUNC
  +--> ?PR?_COSOPERATION?OTPFUNC
  +--> ?CO?OTPFRAME
  +--> ?PR?VCLRWDTCOUNTER?WDTFUNC
  +--> ?PR?PAPER_ALL_CLEAR?UC8118

?PR?_HEXTOSTR?OTPFRAME                           0028H    0007H

?PR?VOTP_INVALIDPROCESS?OTPFRAME                 -----    -----
  +--> ?CO?OTPFRAME
  +--> ?PR?_VPAPER_STRING_DISPLAY?UC8118
  +--> ?PR?VCLRWDTCOUNTER?WDTFUNC

*** NEW ROOT ***************************************************

?PR?VEX0_ISR?ISRFRAME                            -----    -----
  +--> ?PR?_HARDAPIASM

*** NEW ROOT ***************************************************

?PR?VTF0_ISR?ISRFRAME                            -----    -----
  +--> ?PR?_HARDAPIASM

*** NEW ROOT ***************************************************

?PR?VEX1_ISR?ISRFRAME                            -----    -----
  +--> ?PR?_HARDAPIASM
  +--> ?PR?_VTIMER1START1?TIMERFUNC

?PR?_VTIMER1START1?TIMERFUNC                     0459H    0005H
  +--> ?PR?_VTIMERCLKSEL1?TIMERFUNC

?PR?_VTIMERCLKSEL1?TIMERFUNC                     045EH    0002H

*** NEW ROOT ***************************************************

?PR?VTF1_ISR?ISRFRAME                            -----    -----
  +--> ?PR?_HARDAPIASM

*** NEW ROOT ***************************************************

BL51 BANKED LINKER/LOCATER V6.22                                                      11/23/2016  11:58:16  PAGE 12


?PR?VSI_ISR?ISRFRAME                             -----    -----
  +--> ?PR?_HARDAPIASM



SYMBOL TABLE OF MODULE:  .\ObjFile\Z8D16R_2 (?C_STARTUP)

  VALUE           TYPE          NAME
  ----------------------------------

  -------         MODULE        ?C_STARTUP
  C:8E2AH         SEGMENT       ?C_C51STARTUP
  I:00CCH         SEGMENT       ?STACK
  C:0000H         PUBLIC        ?C_STARTUP
  D:00E0H         SYMBOL        ACC
  D:00F0H         SYMBOL        B
  D:0083H         SYMBOL        DPH
  D:0082H         SYMBOL        DPL
  D:0086H         SYMBOL        DPS
  N:0000H         SYMBOL        IBPSTACK
  N:0100H         SYMBOL        IBPSTACKTOP
  N:0100H         SYMBOL        IDATALEN
  C:8E3DH         SYMBOL        IDATALOOP
  D:00A8H         SYMBOL        IE
  C:8E55H         SYMBOL        NOTFIRSTPOWERON
  N:0000H         SYMBOL        PBPSTACK
  N:0000H         SYMBOL        PBPSTACKTOP
  N:0000H         SYMBOL        PDATALEN
  N:0000H         SYMBOL        PDATASTART
  N:0000H         SYMBOL        PPAGE
  N:0000H         SYMBOL        PPAGEENABLE
  D:00A0H         SYMBOL        PPAGE_SFR
  D:009CH         SYMBOL        SCUCTRL
  D:0081H         SYMBOL        SP
  C:8E2AH         SYMBOL        STARTUP1
  N:0000H         SYMBOL        USER_APP_OFF
  N:0000H         SYMBOL        XBPSTACK
  N:0000H         SYMBOL        XBPSTACKTOP
  N:0C00H         SYMBOL        XDATALEN
  C:8E48H         SYMBOL        XDATALOOP
  N:0000H         SYMBOL        XDATASTART
  C:0000H         LINE#         100
  C:8E2AH         LINE#         109
  C:8E2DH         LINE#         110
  C:8E2EH         LINE#         111
  C:8E30H         LINE#         113
  C:8E32H         LINE#         114
  C:8E33H         LINE#         119
  C:8E35H         LINE#         120
  C:8E37H         LINE#         125
  C:8E3AH         LINE#         128
  C:8E3CH         LINE#         129
  C:8E3DH         LINE#         131
  C:8E3EH         LINE#         132
  C:8E40H         LINE#         136
  C:8E43H         LINE#         137
  C:8E45H         LINE#         141
BL51 BANKED LINKER/LOCATER V6.22                                                      11/23/2016  11:58:16  PAGE 13


  C:8E47H         LINE#         143
  C:8E48H         LINE#         144
  C:8E49H         LINE#         145
  C:8E4AH         LINE#         146
  C:8E4CH         LINE#         147
  C:8E4EH         LINE#         150
  C:8E51H         LINE#         151
  C:8E53H         LINE#         152
  C:8E55H         LINE#         154
  C:8E58H         LINE#         156
  -------         ENDMOD        ?C_STARTUP

  -------         MODULE        MAIN
  C:0000H         SYMBOL        _ICE_DUMMY_
  D:00F9H         PUBLIC        SCULCDSWEN
  B:00A8H.7       PUBLIC        EA
  C:9AAFH         PUBLIC        Main
  D:0092H         PUBLIC        SCUPM
  D:0090H         PUBLIC        SCUOSCCTRL
  D:0094H         PUBLIC        SCUSO
  D:0095H         PUBLIC        SCUWT
  B:00A8H.4       PUBLIC        ES
  D:0098H         PUBLIC        SCUIE0
  D:0087H         PUBLIC        PCON
  D:0096H         PUBLIC        SCUWE0
  D:009BH         PUBLIC        SCUIS1
  D:0091H         PUBLIC        SCUMCG
  C:8A4FH         PUBLIC        vSysInit
  I:00B0H         PUBLIC        _FIRST_POWERON_FLAG_
  D:0093H         PUBLIC        SCUPMP
  C:A17AH         PUBLIC        EnterStandby
  -------         PROC          ENTERSTANDBY
  C:A17AH         LINE#         36
  C:A17AH         LINE#         37
  C:A17AH         LINE#         38
  C:A183H         LINE#         39
  C:A189H         LINE#         40
  C:A18CH         LINE#         41
  C:A192H         LINE#         42
  -------         ENDPROC       ENTERSTANDBY
  -------         PROC          VSYSINIT
  C:8A4FH         LINE#         44
  C:8A4FH         LINE#         45
  C:8A4FH         LINE#         48
  C:8A6BH         LINE#         50
  C:8A6EH         LINE#         53
  C:8A71H         LINE#         54
  C:8A76H         LINE#         55
  C:8A76H         LINE#         56
  C:8A78H         LINE#         57
  C:8A81H         LINE#         58
  C:8A81H         LINE#         61
  C:8A84H         LINE#         62
  C:8A8FH         LINE#         64
  C:8A92H         LINE#         65
  C:8AAEH         LINE#         67
  C:8AB1H         LINE#         73
BL51 BANKED LINKER/LOCATER V6.22                                                      11/23/2016  11:58:16  PAGE 14


  C:8AB4H         LINE#         74
  C:8AB7H         LINE#         75
  C:8ABAH         LINE#         76
  C:8ABCH         LINE#         77
  C:8ABEH         LINE#         83
  C:8AC3H         LINE#         84
  C:8AC3H         LINE#         85
  C:8AC6H         LINE#         86
  C:8AD1H         LINE#         89
  C:8AD8H         LINE#         90
  C:8AD8H         LINE#         91
  C:8AE0H         LINE#         92
  C:8AE0H         LINE#         93
  C:8AE2H         LINE#         94
  C:8AE2H         LINE#         95
  C:8AE4H         LINE#         97
  C:8AE4H         LINE#         98
  C:8AE7H         LINE#         99
  C:8B03H         LINE#         100
  C:8B06H         LINE#         101
  C:8B06H         LINE#         102
  C:8B08H         LINE#         103
  C:8B0EH         LINE#         104
  C:8B0EH         LINE#         105
  C:8B13H         LINE#         106
  C:8B13H         LINE#         109
  C:8B2FH         LINE#         110
  C:8B38H         LINE#         111
  C:8B38H         LINE#         142
  -------         ENDPROC       VSYSINIT
  -------         PROC          MAIN
  -------         DO            
  X:0000H         SYMBOL        u1CHeckStatus
  -------         ENDDO         
  C:9AAFH         LINE#         144
  C:9AAFH         LINE#         145
  C:9AAFH         LINE#         146
  C:9AB4H         LINE#         152
  C:9AB7H         LINE#         155
  C:9ABCH         LINE#         157
  C:9AC8H         LINE#         158
  C:9AC8H         LINE#         159
  C:9ACCH         LINE#         160
  C:9ACEH         LINE#         161
  C:9AD4H         LINE#         162
  C:9AD4H         LINE#         163
  C:9AD8H         LINE#         164
  C:9AD8H         LINE#         246
  C:9AE0H         LINE#         247
  C:9AE0H         LINE#         248
  C:9AE5H         LINE#         249
  C:9AE5H         LINE#         255
  C:9AE5H         LINE#         256
  C:9AE5H         LINE#         260
  C:9AE5H         LINE#         262
  C:9AF6H         LINE#         263
  C:9AF6H         LINE#         264
BL51 BANKED LINKER/LOCATER V6.22                                                      11/23/2016  11:58:16  PAGE 15


  C:9AF6H         LINE#         265
  C:9AF6H         LINE#         266
  C:9AF6H         LINE#         267
  C:9AF6H         LINE#         268
  C:9AF6H         LINE#         274
  C:9AF6H         LINE#         276
  C:9AF9H         LINE#         277
  C:9AFBH         LINE#         278
  C:9AFBH         LINE#         279
  C:9AFEH         LINE#         280
  C:9B00H         LINE#         302
  C:9B00H         LINE#         303
  C:9B03H         LINE#         304
  -------         ENDPROC       MAIN
  -------         ENDMOD        MAIN

  -------         MODULE        HARDAPIASM
  C:A0E0H         SEGMENT       ?PR?_HARDAPIASM
  C:A0F2H         PUBLIC        VLOADCURRENT
  C:A0E0H         PUBLIC        VSAVECURRENT
  D:0085H         SYMBOL        DPH2
  D:0084H         SYMBOL        DPL2
  D:0086H         SYMBOL        DPS
  C:A0E0H         LINE#         19
  C:A0E2H         LINE#         20
  C:A0E4H         LINE#         22
  C:A0E6H         LINE#         23
  C:A0E8H         LINE#         24
  C:A0EAH         LINE#         25
  C:A0EDH         LINE#         27
  C:A0EFH         LINE#         28
  C:A0F1H         LINE#         30
  C:A0F2H         LINE#         34
  C:A0F4H         LINE#         35
  C:A0F6H         LINE#         37
  C:A0F8H         LINE#         38
  C:A0FAH         LINE#         39
  C:A0FCH         LINE#         41
  C:A0FEH         LINE#         42
  C:A100H         LINE#         44
  -------         ENDMOD        HARDAPIASM

  -------         MODULE        TBCFUNC
  C:0000H         SYMBOL        _ICE_DUMMY_
  C:9389H         PUBLIC        _vTBC_ADJ
  C:5CB0H         PUBLIC        IC_Temperature_Test
  B:00A8H.7       PUBLIC        EA
  I:00CAH         PUBLIC        Real_Temp_Value_H
  D:0090H         PUBLIC        SCUOSCCTRL
  I:00CBH         PUBLIC        Real_Temp_Value_L
  C:9622H         PUBLIC        _Comp_Difference_10PPM
  I:00B4H         PUBLIC        _LAST_COM_VALUE_
  C:85DAH         PUBLIC        _vFreqAdj
  D:0095H         PUBLIC        SCUWT
  C:77E7H         PUBLIC        _Real_Tmp
  C:A385H         PUBLIC        vTbcInit
  D:0098H         PUBLIC        SCUIE0
BL51 BANKED LINKER/LOCATER V6.22                                                      11/23/2016  11:58:16  PAGE 16


  I:00B9H         PUBLIC        WT_TenMin_Couter
  I:00B3H         PUBLIC        _TEMP_COM_FLAG_
  I:00BEH         PUBLIC        Crystal_PPM
  I:00B8H         PUBLIC        WT_TenMin_Flag
  D:0097H         PUBLIC        SCUWE1
  I:00C8H         PUBLIC        Basic_Temp_Value
  D:0091H         PUBLIC        SCUMCG
  X:058AH         PUBLIC        Temporary
  B:00A8H.1       PUBLIC        ET0
  B:00A8H.3       PUBLIC        ET1
  I:00BAH         PUBLIC        WT_Onehour_Flag
  I:00B2H         PUBLIC        _TEMP_INDEX_FLAG_
  C:76CFH         PUBLIC        g_RealValue
  I:00BCH         PUBLIC        Basic_Temp_Cmd
  I:00BBH         PUBLIC        Exral_Temp_Flag
  I:00C4H         PUBLIC        gBackupTBCInitVal
  C:765FH         PUBLIC        g_CompValue
  C:A2D9H         PUBLIC        vScu_WakeUpTimerWakeUp_1Hour
  I:00C2H         PUBLIC        Bak_PPMValue
  C:75EFH         PUBLIC        g_TempValue
  C:A2EAH         PUBLIC        vScu_WakeUpTimerWakeUp_1Min
  D:00DAH         PUBLIC        TBCSTART
  C:5965H         PUBLIC        _vCompValue_Find
  C:95B7H         PUBLIC        Base_Time
  I:00BDH         PUBLIC        CompValue_Flag
  D:00D9H         PUBLIC        TBCADJH
  C:7B78H         PUBLIC        _vTempValue_Find
  D:00D8H         PUBLIC        TBCADJL
  -------         PROC          VTBCINIT
  C:A385H         LINE#         83
  C:A385H         LINE#         84
  C:A385H         LINE#         85
  C:A388H         LINE#         90
  C:A38BH         LINE#         94
  C:A38DH         LINE#         95
  C:A38FH         LINE#         96
  -------         ENDPROC       VTBCINIT
  -------         PROC          BASE_TIME
  -------         DO            
  X:009BH         SYMBOL        base_time
  -------         ENDDO         
  C:95B7H         LINE#         98
  C:95B7H         LINE#         99
  C:95B7H         LINE#         100
  C:95B7H         LINE#         102
  C:95BAH         LINE#         104
  C:95C3H         LINE#         105
  C:95E9H         LINE#         106
  C:95E9H         LINE#         107
  C:95EAH         LINE#         108
  C:95ECH         LINE#         110
  C:95ECH         LINE#         111
  C:9613H         LINE#         112
  C:9613H         LINE#         114
  C:9621H         LINE#         115
  -------         ENDPROC       BASE_TIME
  -------         PROC          VSCU_WAKEUPTIMERWAKEUP_1HOUR
BL51 BANKED LINKER/LOCATER V6.22                                                      11/23/2016  11:58:16  PAGE 17


  C:A2D9H         LINE#         143
  C:A2D9H         LINE#         144
  C:A2D9H         LINE#         148
  C:A2DFH         LINE#         149
  C:A2E2H         LINE#         150
  C:A2E5H         LINE#         152
  C:A2E7H         LINE#         153
  C:A2E9H         LINE#         154
  -------         ENDPROC       VSCU_WAKEUPTIMERWAKEUP_1HOUR
  -------         PROC          VSCU_WAKEUPTIMERWAKEUP_1MIN
  C:A2EAH         LINE#         165
  C:A2EAH         LINE#         166
  C:A2EAH         LINE#         170
  C:A2F0H         LINE#         171
  C:A2F3H         LINE#         172
  C:A2F6H         LINE#         174
  C:A2F8H         LINE#         175
  C:A2FAH         LINE#         176
  -------         ENDPROC       VSCU_WAKEUPTIMERWAKEUP_1MIN
  -------         PROC          _VTBC_ADJ
  X:004EH         SYMBOL        ppm
  -------         DO            
  X:0052H         SYMBOL        AdjValue
  -------         ENDDO         
  C:9389H         LINE#         187
  C:938FH         LINE#         188
  C:938FH         LINE#         191
  C:93B1H         LINE#         193
  C:93D1H         LINE#         194
  C:93D1H         LINE#         195
  C:93D1H         LINE#         196
  C:93D1H         LINE#         197
  C:93D3H         LINE#         199
  C:93D3H         LINE#         200
  C:93E9H         LINE#         201
  C:93F4H         LINE#         202
  C:93FDH         LINE#         203
  C:93FDH         LINE#         204
  -------         ENDPROC       _VTBC_ADJ
  -------         PROC          _VTEMPVALUE_FIND
  X:004EH         SYMBOL        Temp
  -------         DO            
  X:0052H         SYMBOL        u1Index1
  X:0053H         SYMBOL        temp_index
  X:0054H         SYMBOL        u1Index2
  X:0055H         SYMBOL        Temp1
  D:0004H         SYMBOL        Temp2
  -------         ENDDO         
  C:7B78H         LINE#         215
  C:7B7EH         LINE#         216
  C:7B7EH         LINE#         221
  C:7B84H         LINE#         222
  C:7B88H         LINE#         223
  C:7B8DH         LINE#         227
  C:7BBFH         LINE#         229
  C:7BCEH         LINE#         230
  C:7BCEH         LINE#         231
BL51 BANKED LINKER/LOCATER V6.22                                                      11/23/2016  11:58:16  PAGE 18


  C:7BF2H         LINE#         232
  C:7BF2H         LINE#         233
  C:7BF6H         LINE#         234
  C:7BFCH         LINE#         235
  C:7BFCH         LINE#         237
  C:7BFCH         LINE#         238
  C:7C00H         LINE#         240
  C:7C40H         LINE#         241
  C:7C40H         LINE#         242
  C:7C49H         LINE#         244
  C:7C58H         LINE#         245
  C:7C58H         LINE#         246
  C:7C84H         LINE#         247
  C:7C84H         LINE#         248
  C:7CA7H         LINE#         249
  C:7CACH         LINE#         250
  C:7CACH         LINE#         251
  C:7CB4H         LINE#         254
  C:7CBBH         LINE#         255
  C:7CBBH         LINE#         256
  C:7CBBH         LINE#         257
  C:7CBDH         LINE#         258
  C:7CC1H         LINE#         259
  C:7CC1H         LINE#         260
  C:7CC1H         LINE#         261
  C:7CC3H         LINE#         263
  C:7CC3H         LINE#         264
  C:7CE6H         LINE#         265
  C:7CFFH         LINE#         267
  C:7D14H         LINE#         268
  C:7D14H         LINE#         269
  C:7D18H         LINE#         270
  C:7D1AH         LINE#         272
  C:7D1AH         LINE#         273
  C:7D1EH         LINE#         274
  C:7D1EH         LINE#         275
  C:7D1EH         LINE#         277
  C:7D23H         LINE#         278
  -------         ENDPROC       _VTEMPVALUE_FIND
  -------         PROC          _VCOMPVALUE_FIND
  X:004EH         SYMBOL        Temp
  X:0052H         SYMBOL        index
  -------         DO            
  X:0053H         SYMBOL        TbcValue
  X:0057H         SYMBOL        TemVar1
  X:005BH         SYMBOL        TemVar2
  X:005FH         SYMBOL        TemVar3
  X:0063H         SYMBOL        TemVar4
  X:0067H         SYMBOL        TemVar5
  X:006BH         SYMBOL        TemVar6
  -------         ENDDO         
  C:5965H         LINE#         294
  C:596BH         LINE#         295
  C:596BH         LINE#         300
  C:5971H         LINE#         301
  C:5971H         LINE#         302
  C:5973H         LINE#         303
BL51 BANKED LINKER/LOCATER V6.22                                                      11/23/2016  11:58:16  PAGE 19


  C:5987H         LINE#         304
  C:5987H         LINE#         306
  C:5987H         LINE#         307
  C:59A2H         LINE#         308
  C:59B9H         LINE#         310
  C:59C2H         LINE#         311
  C:59C2H         LINE#         312
  C:59CEH         LINE#         313
  C:59DAH         LINE#         315
  C:5A60H         LINE#         316
  C:5A63H         LINE#         317
  C:5A6EH         LINE#         318
  C:5A6EH         LINE#         319
  C:5A7AH         LINE#         320
  C:5A86H         LINE#         322
  C:5B0CH         LINE#         323
  C:5B0FH         LINE#         325
  C:5B0FH         LINE#         326
  C:5B2AH         LINE#         327
  C:5B41H         LINE#         330
  C:5B5CH         LINE#         331
  C:5B73H         LINE#         333
  C:5B7DH         LINE#         334
  C:5B7DH         LINE#         335
  C:5B7EH         LINE#         336
  C:5C04H         LINE#         337
  C:5C07H         LINE#         339
  C:5C07H         LINE#         340
  C:5CA1H         LINE#         341
  C:5CA1H         LINE#         342
  C:5CA1H         LINE#         343
  C:5CAFH         LINE#         344
  C:5CAFH         LINE#         345
  -------         ENDPROC       _VCOMPVALUE_FIND
  -------         PROC          _COMP_DIFFERENCE_10PPM
  D:0004H         SYMBOL        value
  C:9622H         LINE#         376
  C:9622H         LINE#         377
  C:9622H         LINE#         378
  C:9639H         LINE#         379
  C:9639H         LINE#         380
  C:9655H         LINE#         381
  C:9658H         LINE#         382
  C:965CH         LINE#         383
  C:9660H         LINE#         384
  C:9661H         LINE#         386
  C:9661H         LINE#         387
  C:967DH         LINE#         388
  C:9680H         LINE#         389
  C:9684H         LINE#         390
  C:9688H         LINE#         391
  C:9688H         LINE#         392
  -------         ENDPROC       _COMP_DIFFERENCE_10PPM
  -------         PROC          _REAL_TMP
  X:004EH         SYMBOL        Tmp
  -------         DO            
  X:0052H         SYMBOL        Index
BL51 BANKED LINKER/LOCATER V6.22                                                      11/23/2016  11:58:16  PAGE 20


  -------         ENDDO         
  C:77E7H         LINE#         404
  C:77EDH         LINE#         405
  C:77EDH         LINE#         408
  C:77F4H         LINE#         410
  C:7810H         LINE#         411
  C:7810H         LINE#         412
  C:7823H         LINE#         413
  C:7823H         LINE#         414
  C:785BH         LINE#         415
  C:785BH         LINE#         416
  C:786EH         LINE#         417
  C:786EH         LINE#         418
  C:78A6H         LINE#         419
  C:78A6H         LINE#         420
  C:78B9H         LINE#         421
  C:78B9H         LINE#         422
  C:78F1H         LINE#         423
  C:78F1H         LINE#         424
  C:7904H         LINE#         425
  C:7904H         LINE#         426
  C:793CH         LINE#         427
  C:793CH         LINE#         428
  C:794EH         LINE#         429
  C:794EH         LINE#         430
  C:7986H         LINE#         431
  C:7986H         LINE#         432
  C:7998H         LINE#         433
  C:7998H         LINE#         435
  C:7998H         LINE#         436
  C:79BEH         LINE#         437
  C:79BEH         LINE#         438
  -------         ENDPROC       _REAL_TMP
  -------         PROC          IC_TEMPERATURE_TEST
  -------         DO            
  X:0043H         SYMBOL        Tmp
  X:0047H         SYMBOL        Basic_Tmp
  D:0007H         SYMBOL        Basic_Tmp_Low
  X:004BH         SYMBOL        TmpValue
  D:0006H         SYMBOL        ADJVAL
  -------         ENDDO         
  C:5CB0H         LINE#         440
  C:5CB0H         LINE#         441
  C:5CB0H         LINE#         449
  C:5CB5H         LINE#         451
  C:5CBCH         LINE#         453
  C:5CC7H         LINE#         454
  C:5CD2H         LINE#         457
  C:5CE2H         LINE#         459
  C:5D20H         LINE#         460
  C:5D3EH         LINE#         461
  C:5D53H         LINE#         462
  C:5D79H         LINE#         464
  C:5D7EH         LINE#         465
  C:5D7EH         LINE#         466
  C:5D96H         LINE#         467
  C:5D98H         LINE#         469
BL51 BANKED LINKER/LOCATER V6.22                                                      11/23/2016  11:58:16  PAGE 21


  C:5D98H         LINE#         470
  C:5D9CH         LINE#         471
  C:5DCCH         LINE#         472
  C:5DEFH         LINE#         473
  C:5DEFH         LINE#         475
  C:5E08H         LINE#         476
  C:5E08H         LINE#         477
  C:5E0CH         LINE#         478
  C:5E0FH         LINE#         479
  C:5E42H         LINE#         480
  C:5E42H         LINE#         481
  C:5E46H         LINE#         482
  C:5E49H         LINE#         483
  C:5E7DH         LINE#         484
  C:5E7DH         LINE#         485
  C:5E81H         LINE#         486
  C:5E84H         LINE#         487
  C:5EB7H         LINE#         488
  C:5EB7H         LINE#         489
  C:5EBBH         LINE#         490
  C:5EBEH         LINE#         491
  C:5EF1H         LINE#         492
  C:5EF1H         LINE#         493
  C:5EF5H         LINE#         494
  C:5EF8H         LINE#         495
  C:5F2CH         LINE#         496
  C:5F2CH         LINE#         497
  C:5F30H         LINE#         498
  C:5F33H         LINE#         499
  C:5F67H         LINE#         500
  C:5F67H         LINE#         501
  C:5F6BH         LINE#         502
  C:5F6DH         LINE#         503
  C:5FA1H         LINE#         504
  C:5FA1H         LINE#         505
  C:5FA5H         LINE#         506
  C:5FA7H         LINE#         507
  C:5FDBH         LINE#         508
  C:5FDBH         LINE#         509
  C:5FDFH         LINE#         510
  C:5FE1H         LINE#         512
  C:5FE1H         LINE#         513
  C:5FE5H         LINE#         514
  C:5FE9H         LINE#         515
  C:5FE9H         LINE#         518
  C:5FF0H         LINE#         520
  -------         ENDPROC       IC_TEMPERATURE_TEST
  -------         PROC          _VFREQADJ
  X:0043H         SYMBOL        u1Flag
  -------         DO            
  X:0044H         SYMBOL        Tmp
  X:0048H         SYMBOL        Tbc_Value
  X:004CH         SYMBOL        TmpValue
  D:0006H         SYMBOL        ADJVAL
  D:0003H         SYMBOL        Index
  -------         ENDDO         
  C:85DAH         LINE#         542
BL51 BANKED LINKER/LOCATER V6.22                                                      11/23/2016  11:58:16  PAGE 22


  C:85DFH         LINE#         543
  C:85DFH         LINE#         550
  C:85E4H         LINE#         552
  C:85EBH         LINE#         554
  C:85F6H         LINE#         556
  C:8601H         LINE#         559
  C:8611H         LINE#         561
  C:864FH         LINE#         562
  C:866DH         LINE#         568
  C:8684H         LINE#         570
  C:8697H         LINE#         571
  C:86B3H         LINE#         573
  C:86B6H         LINE#         574
  C:86B9H         LINE#         576
  C:86C0H         LINE#         577
  C:86C0H         LINE#         578
  C:86C3H         LINE#         579
  C:86C5H         LINE#         581
  C:86C5H         LINE#         582
  C:86DCH         LINE#         583
  C:86DCH         LINE#         586
  C:86E3H         LINE#         588
  C:86E6H         LINE#         592
  C:86ECH         LINE#         593
  C:86ECH         LINE#         594
  C:86FDH         LINE#         595
  C:86FDH         LINE#         597
  -------         ENDPROC       _VFREQADJ
  -------         ENDMOD        TBCFUNC

  -------         MODULE        OTPFUNC
  C:0000H         SYMBOL        _ICE_DUMMY_
  D:0090H         PUBLIC        SCUOSCCTRL
  C:5242H         PUBLIC        _OtpActiveVerify
  C:8955H         PUBLIC        _GetTimeFactor
  C:0006H         PUBLIC        _BYTE2LONG
  C:4A6CH         PUBLIC        _ExtractHOTP
  I:0039H         PUBLIC        g_u1RandCnt
  C:872FH         PUBLIC        _CalTime
  X:0666H         PUBLIC        g_u1OtpInput
  X:06B6H         PUBLIC        g_pu1Random
  C:8044H         PUBLIC        _GenOtpOcra
  C:5608H         PUBLIC        _CosOperation
  -------         PROC          _GETTIMEFACTOR
  X:0094H         SYMBOL        pu1Time
  -------         DO            
  X:0097H         SYMBOL        u4Minite
  -------         ENDDO         
  C:8955H         LINE#         211
  C:8960H         LINE#         212
  C:8960H         LINE#         217
  C:8983H         LINE#         224
  C:8996H         LINE#         226
  C:89AAH         LINE#         227
  C:89C4H         LINE#         228
  C:89DDH         LINE#         229
  C:89EAH         LINE#         230
BL51 BANKED LINKER/LOCATER V6.22                                                      11/23/2016  11:58:16  PAGE 23


  C:8A03H         LINE#         231
  C:8A10H         LINE#         232
  C:8A29H         LINE#         233
  C:8A36H         LINE#         234
  -------         ENDPROC       _GETTIMEFACTOR
  -------         PROC          _EXTRACTHOTP
  X:00C0H         SYMBOL        pu1MAC
  X:00C3H         SYMBOL        dwMACLen
  X:00C7H         SYMBOL        pszOtp
  X:00CAH         SYMBOL        dwOTPLen
  -------         DO            
  X:00CEH         SYMBOL        i
  X:00CFH         SYMBOL        dwData
  X:00D3H         SYMBOL        index
  X:00D4H         SYMBOL        u4Mode
  X:00D8H         SYMBOL        u4Index
  -------         ENDDO         
  C:4A6CH         LINE#         391
  C:4A7BH         LINE#         392
  C:4A7BH         LINE#         402
  C:4A95H         LINE#         403
  C:4A95H         LINE#         404
  C:4A98H         LINE#         405
  C:4A98H         LINE#         406
  C:4AB2H         LINE#         407
  C:4AB2H         LINE#         408
  C:4ABCH         LINE#         409
  C:4ABCH         LINE#         410
  C:4AD6H         LINE#         411
  C:4AD6H         LINE#         412
  C:4AE0H         LINE#         413
  C:4AE0H         LINE#         417
  C:4B06H         LINE#         418
  C:4B0AH         LINE#         420
  C:4B1EH         LINE#         421
  C:4B32H         LINE#         422
  C:4B4BH         LINE#         423
  C:4B93H         LINE#         424
  C:4BACH         LINE#         425
  C:4BF4H         LINE#         426
  C:4C0DH         LINE#         427
  C:4C55H         LINE#         445
  C:4C5FH         LINE#         446
  C:4C82H         LINE#         447
  C:4C82H         LINE#         448
  C:4C9FH         LINE#         449
  C:4CA7H         LINE#         450
  C:4CD4H         LINE#         452
  C:4CF6H         LINE#         453
  C:4CF6H         LINE#         454
  C:4D0FH         LINE#         455
  C:4D17H         LINE#         456
  C:4D2EH         LINE#         457
  C:4D38H         LINE#         458
  C:4D4FH         LINE#         459
  C:4D4FH         LINE#         460
  C:4D7CH         LINE#         461
BL51 BANKED LINKER/LOCATER V6.22                                                      11/23/2016  11:58:16  PAGE 24


  C:4DABH         LINE#         462
  C:4DF1H         LINE#         463
  C:4E0EH         LINE#         464
  C:4E27H         LINE#         465
  C:4E49H         LINE#         466
  C:4E53H         LINE#         467
  C:4E56H         LINE#         469
  C:4E58H         LINE#         470
  -------         ENDPROC       _EXTRACTHOTP
  -------         PROC          _GENOTPOCRA
  X:0094H         SYMBOL        pu1Time
  X:0097H         SYMBOL        u1TimeLen
  X:0098H         SYMBOL        pu1Seed
  X:009BH         SYMBOL        u1SeedSize
  X:009CH         SYMBOL        pu1Question
  X:009FH         SYMBOL        u1QuestionLen
  X:00A0H         SYMBOL        pu1Ocra
  X:00A3H         SYMBOL        pu1OcraLen
  -------         DO            
  X:00A6H         SYMBOL        u1Tmp
  X:00A7H         SYMBOL        pu1Tmp
  X:00AAH         SYMBOL        out
  X:00BEH         SYMBOL        u2Len
  -------         ENDDO         
  C:8044H         LINE#         486
  C:8052H         LINE#         487
  C:8052H         LINE#         497
  C:8061H         LINE#         499
  C:806FH         LINE#         500
  C:8077H         LINE#         501
  C:8077H         LINE#         502
  C:807AH         LINE#         503
  C:807AH         LINE#         505
  C:8083H         LINE#         506
  C:8083H         LINE#         507
  C:80B1H         LINE#         508
  C:80B7H         LINE#         509
  C:80B7H         LINE#         511
  C:80BCH         LINE#         516
  C:80EDH         LINE#         517
  C:80F8H         LINE#         525
  C:8153H         LINE#         529
  C:8159H         LINE#         531
  C:8169H         LINE#         533
  C:81B6H         LINE#         535
  C:81B8H         LINE#         536
  -------         ENDPROC       _GENOTPOCRA
  -------         PROC          L?0071
  -------         ENDPROC       L?0071
  -------         PROC          _CALTIME
  X:0771H         SYMBOL        pu4OutTime1
  X:0774H         SYMBOL        pu4OutTime2
  X:0777H         SYMBOL        u4Time1
  X:077BH         SYMBOL        u4Time2
  X:077FH         SYMBOL        u1CalFlg
  C:872FH         LINE#         540
  C:873AH         LINE#         541
BL51 BANKED LINKER/LOCATER V6.22                                                      11/23/2016  11:58:16  PAGE 25


  C:873AH         LINE#         542
  C:8741H         LINE#         543
  C:8741H         LINE#         544
  C:875AH         LINE#         545
  C:875AH         LINE#         546
  C:877DH         LINE#         547
  C:8787H         LINE#         548
  C:878AH         LINE#         550
  C:878AH         LINE#         551
  C:87A6H         LINE#         552
  C:87A6H         LINE#         553
  C:87A8H         LINE#         555
  C:87A8H         LINE#         556
  C:87C2H         LINE#         557
  C:87C2H         LINE#         558
  C:87E1H         LINE#         559
  C:87EBH         LINE#         560
  C:87EDH         LINE#         562
  C:87EDH         LINE#         563
  C:880CH         LINE#         564
  C:880CH         LINE#         565
  C:880CH         LINE#         566
  C:8828H         LINE#         567
  -------         ENDPROC       _CALTIME
  -------         PROC          _BYTE2LONG
  D:0001H         SYMBOL        pu1Data
  -------         DO            
  D:0004H         SYMBOL        lResult
  -------         ENDDO         
  C:0006H         LINE#         570
  C:0006H         LINE#         571
  C:0006H         LINE#         574
  C:0009H         LINE#         575
  C:0009H         LINE#         576
  -------         ENDPROC       _BYTE2LONG
  -------         PROC          _OTPACTIVEVERIFY
  X:0460H         SYMBOL        pu1Time
  X:0463H         SYMBOL        u1TimeLen
  X:0464H         SYMBOL        pu1Seed
  X:0467H         SYMBOL        u1SeedSize
  X:0468H         SYMBOL        pu1Question
  X:046BH         SYMBOL        u1QuestionLen
  X:046CH         SYMBOL        pu1Ocra
  X:046FH         SYMBOL        u1OcraLen
  X:0470H         SYMBOL        u1Window
  -------         DO            
  X:0471H         SYMBOL        pu1InputOTP
  X:0479H         SYMBOL        pu1T
  X:047CH         SYMBOL        pu1Substract
  X:049CH         SYMBOL        u4Time1
  X:04A0H         SYMBOL        u4Time2
  X:04A4H         SYMBOL        u4Time1_Dec
  X:04A8H         SYMBOL        u4Time2_Dec
  X:04ACH         SYMBOL        u4Time1_Add
  X:04B0H         SYMBOL        u4Time2_Add
  X:04B4H         SYMBOL        u1Index
  D:0007H         SYMBOL        u1Tmp
BL51 BANKED LINKER/LOCATER V6.22                                                      11/23/2016  11:58:16  PAGE 26


  X:04B5H         SYMBOL        u1OtpDataLen
  X:04B6H         SYMBOL        u1NumAdd
  X:04B7H         SYMBOL        u1NumDec
  X:04B8H         SYMBOL        pu1OtpTmp
  X:04D8H         SYMBOL        out
  X:04F8H         SYMBOL        u2Len
  -------         ENDDO         
  C:5242H         LINE#         597
  C:5250H         LINE#         598
  C:5250H         LINE#         620
  C:525FH         LINE#         626
  C:5264H         LINE#         627
  C:5285H         LINE#         628
  C:529CH         LINE#         629
  C:52A7H         LINE#         630
  C:52CBH         LINE#         631
  C:52D6H         LINE#         632
  C:52F1H         LINE#         635
  C:5305H         LINE#         636
  C:531EH         LINE#         639
  C:5332H         LINE#         640
  C:5346H         LINE#         642
  C:534DH         LINE#         643
  C:534DH         LINE#         646
  C:5350H         LINE#         647
  C:5352H         LINE#         648
  C:5359H         LINE#         649
  C:5359H         LINE#         652
  C:535CH         LINE#         653
  C:535EH         LINE#         655
  C:535EH         LINE#         658
  C:5361H         LINE#         660
  C:5361H         LINE#         661
  C:5366H         LINE#         662
  C:536AH         LINE#         663
  C:5380H         LINE#         664
  C:5380H         LINE#         665
  C:5383H         LINE#         666
  C:5383H         LINE#         668
  C:5397H         LINE#         669
  C:53ABH         LINE#         670
  C:53AEH         LINE#         671
  C:53B8H         LINE#         672
  C:53B8H         LINE#         673
  C:53DDH         LINE#         674
  C:53F1H         LINE#         675
  C:5405H         LINE#         676
  C:5408H         LINE#         677
  C:540AH         LINE#         679
  C:540AH         LINE#         680
  C:542FH         LINE#         681
  C:5443H         LINE#         682
  C:5457H         LINE#         683
  C:545DH         LINE#         684
  C:545DH         LINE#         686
  C:54CBH         LINE#         687
  C:552DH         LINE#         694
BL51 BANKED LINKER/LOCATER V6.22                                                      11/23/2016  11:58:16  PAGE 27


  C:557FH         LINE#         695
  C:5592H         LINE#         698
  C:5594H         LINE#         700
  C:55CAH         LINE#         702
  C:55E3H         LINE#         703
  C:55E3H         LINE#         704
  C:55EAH         LINE#         705
  C:55EAH         LINE#         706
  C:55ECH         LINE#         707
  C:55ECH         LINE#         708
  C:55F0H         LINE#         709
  C:55F0H         LINE#         710
  C:55F6H         LINE#         711
  C:55F6H         LINE#         713
  C:55F6H         LINE#         714
  C:55FCH         LINE#         715
  C:55FCH         LINE#         716
  C:55FCH         LINE#         717
  C:5605H         LINE#         718
  C:5607H         LINE#         719
  -------         ENDPROC       _OTPACTIVEVERIFY
  -------         PROC          _COSOPERATION
  D:0007H         SYMBOL        Mode
  X:0043H         SYMBOL        pu1DataBuf
  -------         DO            
  X:0046H         SYMBOL        u1Status
  X:0047H         SYMBOL        u1Rsp
  X:0048H         SYMBOL        pu1MacKey
  X:0058H         SYMBOL        pu1Seed
  X:0078H         SYMBOL        i
  X:0079H         SYMBOL        u1OLen
  X:007AH         SYMBOL        pu1TimeFactor
  X:0082H         SYMBOL        pu1IV
  X:0092H         SYMBOL        u2Len
  -------         ENDDO         
  C:5608H         LINE#         721
  C:5613H         LINE#         722
  C:5613H         LINE#         724
  C:5613H         LINE#         741
  C:561EH         LINE#         742
  C:5634H         LINE#         743
  C:5634H         LINE#         744
  C:5634H         LINE#         745
  C:5634H         LINE#         746
  C:5645H         LINE#         747
  C:565FH         LINE#         748
  C:5688H         LINE#         750
  C:56ADH         LINE#         752
  C:56B6H         LINE#         753
  C:56E3H         LINE#         754
  C:56E8H         LINE#         755
  C:56EBH         LINE#         756
  C:56EBH         LINE#         757
  C:56EBH         LINE#         758
  C:56EBH         LINE#         760
  C:56FAH         LINE#         762
  C:5709H         LINE#         763
BL51 BANKED LINKER/LOCATER V6.22                                                      11/23/2016  11:58:16  PAGE 28


  C:5721H         LINE#         765
  C:573EH         LINE#         766
  C:5763H         LINE#         768
  C:576CH         LINE#         769
  C:5799H         LINE#         776
  C:57A2H         LINE#         777
  C:57C7H         LINE#         778
  C:57D0H         LINE#         779
  C:57FEH         LINE#         781
  C:5802H         LINE#         782
  C:5805H         LINE#         783
  C:5808H         LINE#         784
  C:5811H         LINE#         785
  C:5816H         LINE#         786
  C:5823H         LINE#         787
  C:5823H         LINE#         788
  C:5826H         LINE#         815
  C:5826H         LINE#         816
  C:5826H         LINE#         817
  C:583AH         LINE#         818
  C:5843H         LINE#         820
  C:5856H         LINE#         822
  C:587BH         LINE#         823
  C:5884H         LINE#         824
  C:58B2H         LINE#         826
  C:5905H         LINE#         828
  C:5924H         LINE#         829
  C:5933H         LINE#         830
  C:5939H         LINE#         831
  C:5939H         LINE#         833
  C:593BH         LINE#         834
  C:593DH         LINE#         840
  C:593DH         LINE#         842
  C:593DH         LINE#         843
  C:5943H         LINE#         844
  C:5943H         LINE#         845
  C:5943H         LINE#         847
  C:595FH         LINE#         848
  C:5964H         LINE#         849
  -------         ENDPROC       _COSOPERATION
  -------         ENDMOD        OTPFUNC

  -------         MODULE        LCDFUNC
  C:0000H         SYMBOL        _ICE_DUMMY_
  C:A06BH         PUBLIC        vLcd_All_Clear2
  D:0090H         PUBLIC        SCUOSCCTRL
  C:A101H         PUBLIC        _vLcdInit
  C:8CA2H         PUBLIC        Num_Assic1
  D:0091H         PUBLIC        SCUMCG
  C:9FE3H         PUBLIC        _vLcd_Dot_Display
  C:8B39H         PUBLIC        _vLcd_String_Display2
  C:9472H         PUBLIC        _vLcd_Flag_Display2
  C:8BFAH         PUBLIC        Num1
  C:A03FH         PUBLIC        vLcd_String_Clear2
  C:7D24H         PUBLIC        _vLcd_Bcd_Display2
  C:8C4EH         PUBLIC        Num2
  C:A012H         PUBLIC        vLcd_All_Display2
BL51 BANKED LINKER/LOCATER V6.22                                                      11/23/2016  11:58:16  PAGE 29


  C:A347H         PUBLIC        _vDelay1ms
  -------         PROC          _VDELAY1MS
  D:0007H         SYMBOL        Count
  C:A347H         LINE#         42
  C:A347H         LINE#         43
  C:A347H         LINE#         44
  C:A34DH         LINE#         45
  C:A34DH         LINE#         46
  C:A34EH         LINE#         47
  C:A34FH         LINE#         48
  C:A350H         LINE#         49
  C:A351H         LINE#         50
  C:A353H         LINE#         52
  -------         ENDPROC       _VDELAY1MS
  -------         PROC          _VLCDINIT
  D:0007H         SYMBOL        BIAS
  D:0005H         SYMBOL        DUTY
  D:0003H         SYMBOL        FRM
  C:A101H         LINE#         74
  C:A101H         LINE#         75
  C:A101H         LINE#         76
  C:A104H         LINE#         78
  C:A10BH         LINE#         79
  C:A10EH         LINE#         80
  C:A111H         LINE#         81
  C:A114H         LINE#         83
  C:A118H         LINE#         84
  C:A11DH         LINE#         87
  C:A121H         LINE#         90
  -------         ENDPROC       _VLCDINIT
  -------         PROC          _VLCD_BCD_DISPLAY2
  D:0001H         SYMBOL        index
  X:07CBH         SYMBOL        BCD
  -------         DO            
  D:0004H         SYMBOL        pLcdDispReg
  -------         ENDDO         
  C:7D24H         LINE#         308
  C:7D2BH         LINE#         309
  C:7D2BH         LINE#         312
  C:7D2FH         LINE#         315
  C:7D36H         LINE#         316
  C:7D36H         LINE#         317
  C:7D41H         LINE#         318
  C:7D65H         LINE#         319
  C:7D91H         LINE#         320
  C:7DBDH         LINE#         321
  C:7DD7H         LINE#         322
  C:7DF8H         LINE#         323
  C:7DF9H         LINE#         325
  C:7DF9H         LINE#         326
  C:7E05H         LINE#         327
  C:7E1EH         LINE#         328
  C:7E40H         LINE#         329
  C:7E69H         LINE#         330
  C:7E95H         LINE#         331
  C:7EC3H         LINE#         332
  C:7EC3H         LINE#         333
BL51 BANKED LINKER/LOCATER V6.22                                                      11/23/2016  11:58:16  PAGE 30


  -------         ENDPROC       _VLCD_BCD_DISPLAY2
  -------         PROC          _VLCD_STRING_DISPLAY2
  X:07A7H         SYMBOL        cString
  X:07AAH         SYMBOL        cLen
  -------         DO            
  X:07ABH         SYMBOL        i
  X:07ACH         SYMBOL        j
  -------         ENDDO         
  C:8B39H         LINE#         336
  C:8B47H         LINE#         337
  C:8B47H         LINE#         338
  C:8B47H         LINE#         342
  C:8B52H         LINE#         344
  C:8B63H         LINE#         345
  C:8B63H         LINE#         346
  C:8B79H         LINE#         347
  C:8B79H         LINE#         348
  C:8B87H         LINE#         349
  C:8B87H         LINE#         351
  C:8B96H         LINE#         352
  C:8B96H         LINE#         353
  C:8BB7H         LINE#         354
  C:8BB7H         LINE#         355
  C:8BCCH         LINE#         356
  C:8BCCH         LINE#         357
  C:8BCCH         LINE#         358
  C:8BD4H         LINE#         359
  C:8BDDH         LINE#         361
  C:8BF9H         LINE#         362
  -------         ENDPROC       _VLCD_STRING_DISPLAY2
  -------         PROC          VLCD_STRING_CLEAR2
  -------         DO            
  D:0007H         SYMBOL        i
  X:07BEH         SYMBOL        pLcdDispReg
  -------         ENDDO         
  C:A03FH         LINE#         364
  C:A03FH         LINE#         365
  C:A03FH         LINE#         366
  C:A041H         LINE#         368
  C:A04EH         LINE#         370
  C:A054H         LINE#         371
  C:A054H         LINE#         372
  C:A068H         LINE#         373
  C:A06AH         LINE#         374
  -------         ENDPROC       VLCD_STRING_CLEAR2
  -------         PROC          VLCD_ALL_CLEAR2
  -------         DO            
  D:0007H         SYMBOL        i
  X:07C1H         SYMBOL        pLcdDispReg
  -------         ENDDO         
  C:A06BH         LINE#         376
  C:A06BH         LINE#         377
  C:A06BH         LINE#         378
  C:A06DH         LINE#         380
  C:A07AH         LINE#         382
  C:A080H         LINE#         383
  C:A080H         LINE#         384
BL51 BANKED LINKER/LOCATER V6.22                                                      11/23/2016  11:58:16  PAGE 31


  C:A094H         LINE#         385
  C:A096H         LINE#         386
  -------         ENDPROC       VLCD_ALL_CLEAR2
  -------         PROC          VLCD_ALL_DISPLAY2
  -------         DO            
  D:0007H         SYMBOL        i
  X:07C4H         SYMBOL        pLcdDispReg
  -------         ENDDO         
  C:A012H         LINE#         388
  C:A012H         LINE#         389
  C:A012H         LINE#         390
  C:A014H         LINE#         392
  C:A021H         LINE#         394
  C:A027H         LINE#         395
  C:A027H         LINE#         396
  C:A03CH         LINE#         397
  C:A03EH         LINE#         398
  -------         ENDPROC       VLCD_ALL_DISPLAY2
  -------         PROC          _VLCD_FLAG_DISPLAY2
  D:0007H         SYMBOL        u1Flag
  -------         DO            
  D:0004H         SYMBOL        pLcdDispReg
  X:07C7H         SYMBOL        pLcdDispReg1
  -------         ENDDO         
  C:9472H         LINE#         400
  C:9472H         LINE#         401
  C:9472H         LINE#         404
  C:9476H         LINE#         405
  C:947FH         LINE#         407
  C:9483H         LINE#         408
  C:9483H         LINE#         409
  C:948AH         LINE#         410
  C:948BH         LINE#         411
  C:948FH         LINE#         412
  C:948FH         LINE#         413
  C:9496H         LINE#         414
  C:9497H         LINE#         415
  C:949BH         LINE#         416
  C:949BH         LINE#         417
  C:94A2H         LINE#         419
  C:94A3H         LINE#         420
  C:94A7H         LINE#         421
  C:94A7H         LINE#         422
  C:94ADH         LINE#         423
  C:94ADH         LINE#         425
  C:94AFH         LINE#         426
  C:94B3H         LINE#         427
  C:94B3H         LINE#         428
  C:94BAH         LINE#         429
  C:94C8H         LINE#         430
  C:94C9H         LINE#         432
  C:94C9H         LINE#         433
  C:94CFH         LINE#         434
  C:94DEH         LINE#         436
  C:94DEH         LINE#         437
  -------         ENDPROC       _VLCD_FLAG_DISPLAY2
  -------         PROC          _VLCD_DOT_DISPLAY
BL51 BANKED LINKER/LOCATER V6.22                                                      11/23/2016  11:58:16  PAGE 32


  D:0007H         SYMBOL        u1DotFlag
  -------         DO            
  D:0082H         SYMBOL        pLcdDispReg
  -------         ENDDO         
  C:9FE3H         LINE#         439
  C:9FE3H         LINE#         440
  C:9FE3H         LINE#         443
  C:9FE6H         LINE#         445
  C:9FEAH         LINE#         446
  C:9FEAH         LINE#         447
  C:9FEEH         LINE#         448
  C:9FF2H         LINE#         449
  C:9FF3H         LINE#         450
  C:9FF7H         LINE#         451
  C:9FF7H         LINE#         452
  C:9FFBH         LINE#         453
  C:9FFFH         LINE#         454
  C:A000H         LINE#         455
  C:A004H         LINE#         456
  C:A004H         LINE#         457
  C:A008H         LINE#         458
  C:A00CH         LINE#         459
  C:A00DH         LINE#         461
  C:A00DH         LINE#         462
  C:A011H         LINE#         463
  C:A011H         LINE#         464
  -------         ENDPROC       _VLCD_DOT_DISPLAY
  -------         ENDMOD        LCDFUNC

  -------         MODULE        ADCFUNC
  C:0000H         SYMBOL        _ICE_DUMMY_
  C:A1ACH         PUBLIC        _vAdcInit
  D:0091H         PUBLIC        SCUMCG
  C:A19FH         PUBLIC        _vDelay200Us
  C:9F53H         PUBLIC        uiAdc_GetData
  C:A2A1H         PUBLIC        vAdcClose
  -------         PROC          L?0010
  -------         ENDPROC       L?0010
  -------         PROC          _VDELAY200US
  D:0007H         SYMBOL        Tcount
  C:A19FH         LINE#         33
  C:A19FH         LINE#         34
  C:A19FH         LINE#         35
  C:A19FH         LINE#         36
  C:A1A0H         LINE#         37
  C:A1A1H         LINE#         38
  C:A1A2H         LINE#         39
  C:A1A3H         LINE#         40
  C:A1A4H         LINE#         41
  C:A1A5H         LINE#         42
  C:A1ABH         LINE#         43
  -------         ENDPROC       _VDELAY200US
  -------         PROC          _VADCINIT
  D:0007H         SYMBOL        CH
  C:A1ACH         LINE#         44
  C:A1ACH         LINE#         45
  C:A1ACH         LINE#         47
BL51 BANKED LINKER/LOCATER V6.22                                                      11/23/2016  11:58:16  PAGE 33


  C:A1AFH         LINE#         49
  C:A1B6H         LINE#         51
  C:A1B9H         LINE#         52
  C:A1BCH         LINE#         54
  C:A1C0H         LINE#         56
  -------         ENDPROC       _VADCINIT
  -------         PROC          UIADC_GETDATA
  C:9F53H         LINE#         80
  C:9F53H         LINE#         81
  C:9F53H         LINE#         82
  C:9F5AH         LINE#         85
  C:9F5AH         LINE#         86
  C:9F5AH         LINE#         87
  C:9F5DH         LINE#         88
  C:9F5DH         LINE#         89
  C:9F5DH         LINE#         90
  C:9F60H         LINE#         92
  C:9F67H         LINE#         93
  C:9F6DH         LINE#         94
  C:9F74H         LINE#         95
  C:9F82H         LINE#         96
  -------         ENDPROC       UIADC_GETDATA
  -------         PROC          VADCCLOSE
  C:A2A1H         LINE#         106
  C:A2A1H         LINE#         107
  C:A2A1H         LINE#         109
  C:A2A8H         LINE#         111
  C:A2ACH         LINE#         112
  C:A2B3H         LINE#         114
  -------         ENDPROC       VADCCLOSE
  -------         ENDMOD        ADCFUNC

  -------         MODULE        SCUFUNC
  C:0000H         SYMBOL        _ICE_DUMMY_
  -------         ENDMOD        SCUFUNC

  -------         MODULE        UARTFUNC
  C:0000H         SYMBOL        _ICE_DUMMY_
  X:06BEH         PUBLIC        ReceiveCompleteFlag
  B:00A8H.7       PUBLIC        EA
  D:0090H         PUBLIC        SCUOSCCTRL
  X:06BFH         PUBLIC        u1UsartBuffer
  D:00D4H         PUBLIC        UARTBUF
  C:9DECH         PUBLIC        _vUartSendData
  D:00D5H         PUBLIC        UARTCON
  D:00DEH         PUBLIC        TBCDR0
  D:00DDH         PUBLIC        TBCDR1
  D:00DCH         PUBLIC        TBCDR2
  D:00DBH         PUBLIC        TBCDR3
  D:0098H         PUBLIC        SCUIE0
  C:A2FBH         PUBLIC        vUartInit
  C:9284H         PUBLIC        ulGetTbcCountVlaue
  C:A251H         PUBLIC        ucUartGetByte
  D:00B3H         PUBLIC        TM0CON
  C:6F9FH         PUBLIC        ReceiveData_Poll
  D:0091H         PUBLIC        SCUMCG
  C:9F43H         PUBLIC        g_u1PriKey
BL51 BANKED LINKER/LOCATER V6.22                                                      11/23/2016  11:58:16  PAGE 34


  B:00A8H.2       PUBLIC        EX1
  C:A265H         PUBLIC        _vUartPutByte
  C:3F95H         PUBLIC        _GETOTPTime
  C:9F21H         PUBLIC        AText
  C:0026H         PUBLIC        _USART_TxRsp
  D:00C0H         PUBLIC        IOMCR
  D:00D6H         PUBLIC        UARTSTAT
  -------         PROC          ULGETTBCCOUNTVLAUE
  -------         DO            
  X:009FH         SYMBOL        u1TBCDR3Cnt
  D:0007H         SYMBOL        u1TBCDR2Cnt
  X:00A0H         SYMBOL        u1TBCDR1Cnt
  X:00A1H         SYMBOL        u1TBCDR0Cnt
  D:0004H         SYMBOL        u4Temp
  C:9284H         SYMBOL        _START
  -------         ENDDO         
  C:9284H         LINE#         42
  C:9284H         LINE#         43
  C:9284H         LINE#         50
  C:9284H         LINE#         51
  C:928AH         LINE#         52
  C:928CH         LINE#         54
  C:9290H         LINE#         55
  C:9290H         LINE#         56
  C:9294H         LINE#         57
  C:9298H         LINE#         58
  C:9298H         LINE#         59
  C:929CH         LINE#         60
  C:92A4H         LINE#         61
  C:92A4H         LINE#         62
  C:92A8H         LINE#         63
  C:92A8H         LINE#         64
  C:92A8H         LINE#         66
  C:92A8H         LINE#         67
  C:92A8H         LINE#         68
  C:92A8H         LINE#         69
  C:92A8H         LINE#         71
  C:92A8H         LINE#         72
  C:92A8H         LINE#         73
  C:92A8H         LINE#         75
  C:9306H         LINE#         76
  C:9306H         LINE#         77
  -------         ENDPROC       ULGETTBCCOUNTVLAUE
  -------         PROC          _GETOTPTIME
  X:0089H         SYMBOL        Time
  -------         DO            
  X:008CH         SYMBOL        k
  X:008EH         SYMBOL        u4CrruentTime
  C:4486H         SYMBOL        __Day
  -------         ENDDO         
  C:3F95H         LINE#         79
  C:3FA0H         LINE#         80
  C:3FA0H         LINE#         83
  C:3FA9H         LINE#         84
  C:3FCEH         LINE#         85
  C:3FEBH         LINE#         87
  C:400EH         LINE#         90
BL51 BANKED LINKER/LOCATER V6.22                                                      11/23/2016  11:58:16  PAGE 35


  C:4018H         LINE#         91
  C:4034H         LINE#         92
  C:4034H         LINE#         93
  C:4056H         LINE#         94
  C:405EH         LINE#         95
  C:405EH         LINE#         96
  C:407FH         LINE#         97
  C:407FH         LINE#         98
  C:408DH         LINE#         99
  C:408FH         LINE#         102
  C:40ADH         LINE#         103
  C:40C0H         LINE#         105
  C:40DEH         LINE#         106
  C:40DEH         LINE#         107
  C:4100H         LINE#         108
  C:4113H         LINE#         109
  C:4113H         LINE#         111
  C:4113H         LINE#         112
  C:4113H         LINE#         113
  C:4113H         LINE#         115
  C:411BH         LINE#         116
  C:411BH         LINE#         117
  C:4136H         LINE#         118
  C:4136H         LINE#         119
  C:4149H         LINE#         120
  C:4149H         LINE#         121
  C:414BH         LINE#         123
  C:414BH         LINE#         124
  C:414BH         LINE#         125
  C:414BH         LINE#         126
  C:414BH         LINE#         128
  C:414BH         LINE#         129
  C:4169H         LINE#         130
  C:4169H         LINE#         131
  C:418BH         LINE#         132
  C:419EH         LINE#         133
  C:419EH         LINE#         135
  C:419EH         LINE#         136
  C:419EH         LINE#         137
  C:419EH         LINE#         138
  C:419EH         LINE#         141
  C:41BCH         LINE#         142
  C:41BCH         LINE#         143
  C:41DEH         LINE#         144
  C:41F1H         LINE#         145
  C:41F1H         LINE#         147
  C:41F1H         LINE#         148
  C:41F1H         LINE#         149
  C:41F1H         LINE#         151
  C:420FH         LINE#         152
  C:420FH         LINE#         153
  C:4231H         LINE#         154
  C:4244H         LINE#         155
  C:4244H         LINE#         157
  C:4244H         LINE#         158
  C:4244H         LINE#         159
  C:4244H         LINE#         161
BL51 BANKED LINKER/LOCATER V6.22                                                      11/23/2016  11:58:16  PAGE 36


  C:4262H         LINE#         162
  C:4262H         LINE#         163
  C:4284H         LINE#         164
  C:4297H         LINE#         165
  C:4297H         LINE#         167
  C:4297H         LINE#         168
  C:4297H         LINE#         169
  C:4297H         LINE#         171
  C:42B5H         LINE#         172
  C:42B5H         LINE#         173
  C:42D7H         LINE#         174
  C:42EAH         LINE#         175
  C:42EAH         LINE#         177
  C:42EAH         LINE#         178
  C:42EAH         LINE#         179
  C:42EAH         LINE#         181
  C:4308H         LINE#         182
  C:4308H         LINE#         183
  C:432AH         LINE#         184
  C:433DH         LINE#         185
  C:433DH         LINE#         187
  C:433DH         LINE#         188
  C:433DH         LINE#         189
  C:433DH         LINE#         191
  C:435BH         LINE#         192
  C:435BH         LINE#         193
  C:437DH         LINE#         194
  C:4390H         LINE#         195
  C:4390H         LINE#         197
  C:4390H         LINE#         198
  C:4390H         LINE#         199
  C:4390H         LINE#         201
  C:43AEH         LINE#         202
  C:43AEH         LINE#         203
  C:43D0H         LINE#         204
  C:43E3H         LINE#         205
  C:43E3H         LINE#         207
  C:43E3H         LINE#         208
  C:43E3H         LINE#         209
  C:43E3H         LINE#         211
  C:4401H         LINE#         212
  C:4401H         LINE#         213
  C:4423H         LINE#         214
  C:4436H         LINE#         215
  C:4436H         LINE#         217
  C:4436H         LINE#         218
  C:4436H         LINE#         219
  C:4436H         LINE#         221
  C:4451H         LINE#         222
  C:4451H         LINE#         223
  C:4473H         LINE#         224
  C:4486H         LINE#         225
  C:4486H         LINE#         227
  C:4486H         LINE#         229
  C:44B3H         LINE#         230
  C:44D9H         LINE#         231
  C:4502H         LINE#         232
BL51 BANKED LINKER/LOCATER V6.22                                                      11/23/2016  11:58:16  PAGE 37


  C:452DH         LINE#         234
  C:4536H         LINE#         235
  C:455BH         LINE#         236
  C:4580H         LINE#         237
  -------         ENDPROC       _GETOTPTIME
  -------         PROC          VUARTINIT
  C:A2FBH         LINE#         252
  C:A2FBH         LINE#         253
  C:A2FBH         LINE#         254
  C:A2FEH         LINE#         255
  C:A301H         LINE#         256
  C:A304H         LINE#         257
  C:A307H         LINE#         258
  C:A30AH         LINE#         272
  -------         ENDPROC       VUARTINIT
  -------         PROC          UCUARTGETBYTE
  C:A251H         LINE#         283
  C:A251H         LINE#         284
  C:A251H         LINE#         285
  C:A254H         LINE#         286
  C:A257H         LINE#         287
  C:A25CH         LINE#         288
  C:A25FH         LINE#         289
  C:A262H         LINE#         290
  C:A264H         LINE#         291
  -------         ENDPROC       UCUARTGETBYTE
  -------         PROC          _VUARTPUTBYTE
  D:0007H         SYMBOL        Byte
  C:A265H         LINE#         302
  C:A265H         LINE#         303
  C:A265H         LINE#         309
  C:A268H         LINE#         311
  C:A26BH         LINE#         312
  C:A26DH         LINE#         313
  C:A270H         LINE#         314
  C:A275H         LINE#         315
  C:A278H         LINE#         325
  -------         ENDPROC       _VUARTPUTBYTE
  -------         PROC          _VUARTSENDDATA
  X:0089H         SYMBOL        OutData
  D:0004H         SYMBOL        Len
  -------         DO            
  D:0006H         SYMBOL        TmpLen
  -------         ENDDO         
  C:9DECH         LINE#         337
  C:9DF7H         LINE#         338
  C:9DF7H         LINE#         340
  C:9DFBH         LINE#         341
  C:9DFEH         LINE#         344
  C:9E08H         LINE#         345
  C:9E08H         LINE#         346
  C:9E1DH         LINE#         347
  C:9E20H         LINE#         348
  C:9E27H         LINE#         351
  C:9E2CH         LINE#         352
  C:9E2FH         LINE#         353
  -------         ENDPROC       _VUARTSENDDATA
BL51 BANKED LINKER/LOCATER V6.22                                                      11/23/2016  11:58:16  PAGE 38


  -------         PROC          RECEIVEDATA_POLL
  -------         DO            
  X:0724H         SYMBOL        i
  X:0725H         SYMBOL        u1MacChk
  D:0007H         SYMBOL        u1RevDataFlag
  X:0726H         SYMBOL        u2Status
  X:0728H         SYMBOL        pu1IV
  X:0738H         SYMBOL        u2Len
  X:073AH         SYMBOL        pu1MacKey
  X:074AH         SYMBOL        u1Index
  -------         ENDDO         
  C:6F9FH         LINE#         380
  C:6F9FH         LINE#         381
  C:6F9FH         LINE#         392
  C:6FAEH         LINE#         395
  C:6FB3H         LINE#         398
  C:6FB7H         LINE#         415
  C:6FB9H         LINE#         416
  C:6FC9H         LINE#         418
  C:6FCBH         LINE#         419
  C:6FCDH         LINE#         421
  C:6FD0H         LINE#         422
  C:6FD3H         LINE#         425
  C:6FD8H         LINE#         426
  C:6FE6H         LINE#         427
  C:6FE6H         LINE#         428
  C:6FE9H         LINE#         430
  C:6FECH         LINE#         431
  C:6FEFH         LINE#         432
  C:6FF1H         LINE#         433
  C:6FF8H         LINE#         434
  C:6FF8H         LINE#         435
  C:7002H         LINE#         436
  C:7005H         LINE#         437
  C:7008H         LINE#         438
  C:7008H         LINE#         440
  C:7017H         LINE#         441
  C:7017H         LINE#         442
  C:7028H         LINE#         443
  C:702BH         LINE#         445
  C:702EH         LINE#         446
  C:7031H         LINE#         448
  C:7036H         LINE#         449
  C:7036H         LINE#         450
  C:703DH         LINE#         451
  C:703DH         LINE#         452
  C:703FH         LINE#         453
  C:703FH         LINE#         455
  C:703FH         LINE#         457
  C:7042H         LINE#         459
  C:7044H         LINE#         460
  C:7047H         LINE#         461
  C:704AH         LINE#         462
  C:704DH         LINE#         463
  C:7050H         LINE#         470
  C:7054H         LINE#         471
  C:7055H         LINE#         472
BL51 BANKED LINKER/LOCATER V6.22                                                      11/23/2016  11:58:16  PAGE 39


  C:7062H         LINE#         473
  C:7062H         LINE#         474
  C:7074H         LINE#         475
  C:7074H         LINE#         476
  C:7075H         LINE#         477
  C:7077H         LINE#         479
  C:7077H         LINE#         480
  C:7079H         LINE#         481
  C:7079H         LINE#         483
  C:707DH         LINE#         484
  C:707DH         LINE#         485
  C:707DH         LINE#         486
  C:707DH         LINE#         489
  C:7089H         LINE#         491
  C:708EH         LINE#         492
  C:70B2H         LINE#         493
  C:70C1H         LINE#         494
  C:70DCH         LINE#         495
  C:7112H         LINE#         496
  C:712DH         LINE#         497
  C:715BH         LINE#         499
  C:7161H         LINE#         500
  C:7161H         LINE#         501
  C:7169H         LINE#         502
  C:716BH         LINE#         504
  C:716BH         LINE#         505
  C:7174H         LINE#         506
  C:7191H         LINE#         507
  C:7191H         LINE#         508
  C:71B4H         LINE#         509
  C:71BCH         LINE#         510
  C:71BCH         LINE#         512
  C:71C4H         LINE#         515
  -------         ENDPROC       RECEIVEDATA_POLL
  -------         PROC          _USART_TXRSP
  X:0043H         SYMBOL        u2Rsp
  X:0045H         SYMBOL        u1Opcode
  -------         DO            
  X:0046H         SYMBOL        pu1MacKey
  X:0056H         SYMBOL        pu1IV
  X:0066H         SYMBOL        i
  X:0067H         SYMBOL        u2Len
  X:0069H         SYMBOL        pu1Seed
  -------         ENDDO         
  C:0026H         LINE#         519
  C:0031H         LINE#         520
  C:0031H         LINE#         533
  C:0037H         LINE#         534
  C:0039H         LINE#         535
  C:003BH         LINE#         536
  C:003EH         LINE#         539
  C:0049H         LINE#         540
  C:0049H         LINE#         541
  C:0054H         LINE#         542
  C:0054H         LINE#         543
  C:0068H         LINE#         544
  C:0068H         LINE#         545
BL51 BANKED LINKER/LOCATER V6.22                                                      11/23/2016  11:58:16  PAGE 40


  C:006EH         LINE#         546
  C:0075H         LINE#         547
  C:0075H         LINE#         548
  C:007CH         LINE#         549
  C:007CH         LINE#         550
  C:0091H         LINE#         551
  C:0099H         LINE#         552
  C:009BH         LINE#         554
  C:009BH         LINE#         555
  C:00ABH         LINE#         556
  C:00B1H         LINE#         557
  C:00B1H         LINE#         558
  C:00B3H         LINE#         560
  C:00B3H         LINE#         561
  C:00B9H         LINE#         562
  C:00BBH         LINE#         563
  C:00BBH         LINE#         564
  C:00C8H         LINE#         565
  C:00CBH         LINE#         567
  C:00F0H         LINE#         568
  C:00F0H         LINE#         569
  C:00F0H         LINE#         570
  C:00F0H         LINE#         572
  C:00F0H         LINE#         573
  C:00F0H         LINE#         574
  C:00F0H         LINE#         575
  C:00F0H         LINE#         576
  C:00F0H         LINE#         579
  C:00F3H         LINE#         581
  C:00F3H         LINE#         582
  C:00FDH         LINE#         583
  C:0102H         LINE#         584
  C:010FH         LINE#         585
  C:0112H         LINE#         587
  C:0137H         LINE#         588
  C:0137H         LINE#         589
  C:0137H         LINE#         590
  C:0137H         LINE#         592
  C:0137H         LINE#         593
  C:0137H         LINE#         594
  C:0137H         LINE#         595
  C:0137H         LINE#         596
  C:0137H         LINE#         597
  C:0137H         LINE#         598
  C:013AH         LINE#         599
  C:0145H         LINE#         600
  C:0145H         LINE#         601
  C:0153H         LINE#         602
  C:0153H         LINE#         603
  C:0158H         LINE#         604
  C:015DH         LINE#         605
  C:016AH         LINE#         606
  C:016DH         LINE#         608
  C:0192H         LINE#         609
  C:0192H         LINE#         610
  C:0192H         LINE#         611
  C:0192H         LINE#         613
BL51 BANKED LINKER/LOCATER V6.22                                                      11/23/2016  11:58:16  PAGE 41


  C:0192H         LINE#         614
  C:0192H         LINE#         615
  C:0192H         LINE#         616
  C:0192H         LINE#         617
  C:0192H         LINE#         618
  C:0195H         LINE#         620
  C:0195H         LINE#         621
  C:019FH         LINE#         622
  C:01A4H         LINE#         623
  C:01B1H         LINE#         624
  C:01B4H         LINE#         626
  C:01D9H         LINE#         627
  C:01D9H         LINE#         628
  C:01D9H         LINE#         629
  C:01D9H         LINE#         631
  C:01D9H         LINE#         632
  C:01D9H         LINE#         633
  C:01D9H         LINE#         634
  C:01D9H         LINE#         635
  C:01D9H         LINE#         636
  C:01D9H         LINE#         637
  C:01DCH         LINE#         638
  C:01E7H         LINE#         639
  C:01E7H         LINE#         640
  C:01EDH         LINE#         651
  C:01F8H         LINE#         652
  C:020BH         LINE#         653
  C:0230H         LINE#         654
  C:0239H         LINE#         655
  C:0267H         LINE#         660
  C:028CH         LINE#         661
  C:029BH         LINE#         662
  C:02A4H         LINE#         664
  C:02D3H         LINE#         665
  C:02DBH         LINE#         666
  C:02E3H         LINE#         667
  C:02EBH         LINE#         668
  C:02F3H         LINE#         671
  C:0300H         LINE#         672
  C:0303H         LINE#         674
  C:0328H         LINE#         675
  C:0328H         LINE#         676
  C:0328H         LINE#         677
  C:0328H         LINE#         679
  C:0328H         LINE#         680
  C:0328H         LINE#         681
  C:0328H         LINE#         682
  C:0328H         LINE#         683
  C:0328H         LINE#         684
  C:032BH         LINE#         685
  C:0336H         LINE#         686
  C:0336H         LINE#         687
  C:034AH         LINE#         688
  C:034AH         LINE#         689
  C:0351H         LINE#         690
  C:0361H         LINE#         691
  C:0361H         LINE#         692
BL51 BANKED LINKER/LOCATER V6.22                                                      11/23/2016  11:58:16  PAGE 42


  C:0375H         LINE#         693
  C:037DH         LINE#         695
  C:0396H         LINE#         696
  C:03A2H         LINE#         698
  C:03C7H         LINE#         699
  C:03D6H         LINE#         700
  C:03E5H         LINE#         701
  C:0414H         LINE#         703
  C:0428H         LINE#         704
  C:0439H         LINE#         705
  C:044AH         LINE#         706
  C:045BH         LINE#         707
  C:0468H         LINE#         708
  C:046BH         LINE#         710
  C:046BH         LINE#         711
  C:0475H         LINE#         712
  C:047AH         LINE#         713
  C:0487H         LINE#         714
  C:048AH         LINE#         716
  C:04AFH         LINE#         717
  C:04BEH         LINE#         718
  C:04C7H         LINE#         719
  C:04F6H         LINE#         721
  C:04FEH         LINE#         722
  C:0506H         LINE#         723
  C:050EH         LINE#         724
  C:0516H         LINE#         725
  C:0520H         LINE#         726
  C:0520H         LINE#         727
  C:0523H         LINE#         728
  C:052EH         LINE#         729
  C:052EH         LINE#         730
  C:0542H         LINE#         731
  C:0542H         LINE#         732
  C:0548H         LINE#         733
  C:0551H         LINE#         734
  C:055EH         LINE#         735
  C:0561H         LINE#         737
  C:0586H         LINE#         738
  C:0595H         LINE#         739
  C:059EH         LINE#         741
  C:05CDH         LINE#         743
  C:05D5H         LINE#         744
  C:05DDH         LINE#         745
  C:05E5H         LINE#         746
  C:05EDH         LINE#         749
  C:05F7H         LINE#         750
  C:05FAH         LINE#         752
  C:05FAH         LINE#         753
  C:0604H         LINE#         754
  C:0609H         LINE#         755
  C:0616H         LINE#         756
  C:0619H         LINE#         758
  C:063EH         LINE#         759
  C:064DH         LINE#         760
  C:0656H         LINE#         761
  C:0685H         LINE#         763
BL51 BANKED LINKER/LOCATER V6.22                                                      11/23/2016  11:58:16  PAGE 43


  C:068DH         LINE#         764
  C:0695H         LINE#         765
  C:069DH         LINE#         766
  C:06A5H         LINE#         767
  C:06AFH         LINE#         768
  C:06AFH         LINE#         769
  C:06B2H         LINE#         770
  C:06BDH         LINE#         771
  C:06BDH         LINE#         772
  C:06D1H         LINE#         773
  C:06D1H         LINE#         774
  C:06D7H         LINE#         775
  C:06DBH         LINE#         776
  C:06DFH         LINE#         777
  C:06E3H         LINE#         778
  C:06E7H         LINE#         779
  C:06F4H         LINE#         780
  C:06F7H         LINE#         782
  C:071CH         LINE#         783
  C:072BH         LINE#         784
  C:0734H         LINE#         785
  C:0763H         LINE#         787
  C:076BH         LINE#         788
  C:0773H         LINE#         789
  C:077BH         LINE#         790
  C:0783H         LINE#         791
  C:078DH         LINE#         792
  C:0790H         LINE#         794
  C:0790H         LINE#         795
  C:079AH         LINE#         796
  C:079FH         LINE#         797
  C:07ACH         LINE#         798
  C:07AFH         LINE#         800
  C:07D4H         LINE#         801
  C:07E3H         LINE#         802
  C:07ECH         LINE#         803
  C:081BH         LINE#         805
  C:0823H         LINE#         806
  C:082BH         LINE#         807
  C:0833H         LINE#         808
  C:083BH         LINE#         809
  C:0845H         LINE#         810
  C:0845H         LINE#         811
  C:0848H         LINE#         812
  C:0853H         LINE#         813
  C:0853H         LINE#         814
  C:0867H         LINE#         815
  C:0867H         LINE#         816
  C:086BH         LINE#         817
  C:0878H         LINE#         818
  C:087BH         LINE#         820
  C:08A0H         LINE#         821
  C:08AFH         LINE#         822
  C:08B8H         LINE#         823
  C:08E7H         LINE#         825
  C:08EFH         LINE#         826
  C:08F7H         LINE#         827
BL51 BANKED LINKER/LOCATER V6.22                                                      11/23/2016  11:58:16  PAGE 44


  C:08FFH         LINE#         828
  C:0907H         LINE#         829
  C:0911H         LINE#         831
  C:0914H         LINE#         833
  C:0914H         LINE#         834
  C:091EH         LINE#         835
  C:0923H         LINE#         836
  C:0930H         LINE#         837
  C:0933H         LINE#         839
  C:0958H         LINE#         840
  C:0967H         LINE#         841
  C:0970H         LINE#         842
  C:099FH         LINE#         844
  C:09A7H         LINE#         845
  C:09AFH         LINE#         846
  C:09B7H         LINE#         847
  C:09BFH         LINE#         848
  C:09C9H         LINE#         849
  C:09C9H         LINE#         850
  C:09CCH         LINE#         851
  C:09D7H         LINE#         852
  C:09D7H         LINE#         853
  C:09E1H         LINE#         854
  C:09E1H         LINE#         855
  C:09E7H         LINE#         856
  C:09EEH         LINE#         857
  C:09EEH         LINE#         858
  C:0A03H         LINE#         859
  C:0A0BH         LINE#         860
  C:0A0DH         LINE#         862
  C:0A0DH         LINE#         863
  C:0A1DH         LINE#         864
  C:0A23H         LINE#         865
  C:0A23H         LINE#         866
  C:0A30H         LINE#         867
  C:0A33H         LINE#         869
  C:0A58H         LINE#         870
  C:0A67H         LINE#         871
  C:0A70H         LINE#         872
  C:0A9FH         LINE#         874
  C:0AA7H         LINE#         875
  C:0AAFH         LINE#         876
  C:0AB7H         LINE#         877
  C:0ABFH         LINE#         878
  C:0AC9H         LINE#         879
  C:0ACCH         LINE#         881
  C:0ACCH         LINE#         882
  C:0AD2H         LINE#         883
  C:0AD6H         LINE#         884
  C:0AD8H         LINE#         885
  C:0AE5H         LINE#         886
  C:0AE8H         LINE#         888
  C:0B0DH         LINE#         889
  C:0B1CH         LINE#         890
  C:0B25H         LINE#         891
  C:0B54H         LINE#         893
  C:0B5CH         LINE#         894
BL51 BANKED LINKER/LOCATER V6.22                                                      11/23/2016  11:58:16  PAGE 45


  C:0B64H         LINE#         895
  C:0B6CH         LINE#         896
  C:0B74H         LINE#         897
  C:0B7EH         LINE#         898
  C:0B7EH         LINE#         899
  C:0B81H         LINE#         900
  C:0B8CH         LINE#         901
  C:0B8CH         LINE#         902
  C:0B92H         LINE#         903
  C:0B98H         LINE#         904
  C:0B98H         LINE#         905
  C:0BA2H         LINE#         906
  C:0BA7H         LINE#         907
  C:0BACH         LINE#         908
  C:0BB1H         LINE#         912
  C:0BB6H         LINE#         914
  C:0BB8H         LINE#         916
  C:0BB8H         LINE#         917
  C:0BBEH         LINE#         918
  C:0BC0H         LINE#         919
  C:0BC2H         LINE#         920
  C:0BC4H         LINE#         921
  C:0BC6H         LINE#         922
  C:0BC6H         LINE#         923
  C:0BD3H         LINE#         924
  C:0BD6H         LINE#         926
  C:0BFBH         LINE#         927
  C:0C0AH         LINE#         928
  C:0C13H         LINE#         929
  C:0C42H         LINE#         931
  C:0C4AH         LINE#         932
  C:0C52H         LINE#         933
  C:0C5AH         LINE#         934
  C:0C62H         LINE#         935
  C:0C6CH         LINE#         936
  C:0C6FH         LINE#         937
  C:0C7AH         LINE#         938
  C:0C7AH         LINE#         939
  C:0C7FH         LINE#         940
  C:0C84H         LINE#         941
  C:0C91H         LINE#         942
  C:0C94H         LINE#         944
  C:0CB9H         LINE#         945
  C:0CC8H         LINE#         946
  C:0CD1H         LINE#         947
  C:0D00H         LINE#         949
  C:0D08H         LINE#         950
  C:0D10H         LINE#         951
  C:0D18H         LINE#         952
  C:0D20H         LINE#         953
  C:0D2AH         LINE#         954
  C:0D2DH         LINE#         956
  C:0D2DH         LINE#         957
  C:0D32H         LINE#         958
  C:0D3FH         LINE#         959
  C:0D42H         LINE#         961
  C:0D67H         LINE#         962
BL51 BANKED LINKER/LOCATER V6.22                                                      11/23/2016  11:58:16  PAGE 46


  C:0D76H         LINE#         963
  C:0D7FH         LINE#         964
  C:0DAEH         LINE#         966
  C:0DB6H         LINE#         967
  C:0DBEH         LINE#         968
  C:0DC6H         LINE#         969
  C:0DCEH         LINE#         970
  C:0DD8H         LINE#         972
  C:0DD8H         LINE#         973
  C:0DDBH         LINE#         975
  C:0DDBH         LINE#         976
  C:0DE0H         LINE#         977
  C:0DEDH         LINE#         978
  C:0DF0H         LINE#         980
  C:0E15H         LINE#         981
  C:0E24H         LINE#         982
  C:0E2DH         LINE#         983
  C:0E5CH         LINE#         985
  C:0E64H         LINE#         986
  C:0E6CH         LINE#         987
  C:0E74H         LINE#         988
  C:0E7CH         LINE#         989
  C:0E89H         LINE#         990
  C:0E89H         LINE#         992
  -------         ENDPROC       _USART_TXRSP
  -------         ENDMOD        UARTFUNC

  -------         MODULE        TIMERFUNC
  C:0000H         SYMBOL        _ICE_DUMMY_
  B:00A8H.7       PUBLIC        EA
  D:0090H         PUBLIC        SCUOSCCTRL
  D:0098H         PUBLIC        SCUIE0
  D:00B0H         PUBLIC        TM0CDATA
  D:00B1H         PUBLIC        TM1CDATA
  D:00B3H         PUBLIC        TM0CON
  D:00B4H         PUBLIC        TM1CON
  D:00B2H         PUBLIC        TM1MOD
  D:0096H         PUBLIC        SCUWE0
  C:9B5BH         PUBLIC        _vTimerClkSel
  C:94DFH         PUBLIC        _vTimer1Start
  D:0091H         PUBLIC        SCUMCG
  B:00A8H.2       PUBLIC        EX1
  D:00F8H         PUBLIC        SCUTMRCG
  C:9BB0H         PUBLIC        _vTimerClkSel1
  C:954BH         PUBLIC        _vTimer1Start1
  -------         PROC          _VTIMERCLKSEL
  X:07C9H         SYMBOL        TimerNum
  X:07CAH         SYMBOL        TimerClk
  C:9B5BH         LINE#         33
  C:9B63H         LINE#         34
  C:9B63H         LINE#         35
  C:9B83H         LINE#         36
  C:9B83H         LINE#         37
  C:9B83H         LINE#         38
  C:9B83H         LINE#         39
  C:9B83H         LINE#         40
  C:9B83H         LINE#         41
BL51 BANKED LINKER/LOCATER V6.22                                                      11/23/2016  11:58:16  PAGE 47


  C:9B86H         LINE#         42
  C:9B88H         LINE#         43
  C:9B88H         LINE#         44
  C:9B88H         LINE#         45
  C:9B88H         LINE#         46
  C:9B88H         LINE#         47
  C:9B8BH         LINE#         48
  C:9B8BH         LINE#         49
  C:9B8BH         LINE#         50
  C:9B8BH         LINE#         52
  C:9B8BH         LINE#         53
  C:9B94H         LINE#         54
  C:9B94H         LINE#         55
  C:9B97H         LINE#         56
  C:9B97H         LINE#         57
  C:9B99H         LINE#         58
  C:9BA6H         LINE#         59
  C:9BA6H         LINE#         60
  C:9BA9H         LINE#         61
  C:9BAFH         LINE#         62
  C:9BAFH         LINE#         64
  -------         ENDPROC       _VTIMERCLKSEL
  -------         PROC          _VTIMER1START
  D:0006H         SYMBOL        TimerNum
  D:0004H         SYMBOL        Mode
  D:0002H         SYMBOL        InitValue
  X:07BDH         SYMBOL        TimerClk
  C:94DFH         LINE#         67
  C:94E3H         LINE#         68
  C:94E3H         LINE#         69
  C:94E6H         LINE#         70
  C:94F0H         LINE#         71
  C:94FBH         LINE#         72
  C:94FBH         LINE#         74
  C:94FBH         LINE#         75
  C:94FEH         LINE#         76
  C:9501H         LINE#         77
  C:9501H         LINE#         78
  C:9501H         LINE#         80
  C:9501H         LINE#         81
  C:9501H         LINE#         82
  C:9501H         LINE#         84
  C:9501H         LINE#         85
  C:9503H         LINE#         86
  C:9508H         LINE#         87
  C:9508H         LINE#         88
  C:9508H         LINE#         90
  C:9508H         LINE#         91
  C:9508H         LINE#         92
  C:9508H         LINE#         94
  C:9508H         LINE#         95
  C:9508H         LINE#         96
  C:950AH         LINE#         97
  C:950AH         LINE#         98
  C:950DH         LINE#         99
  C:9510H         LINE#         100
  C:9510H         LINE#         101
BL51 BANKED LINKER/LOCATER V6.22                                                      11/23/2016  11:58:16  PAGE 48


  C:9512H         LINE#         103
  C:9515H         LINE#         104
  C:9518H         LINE#         105
  C:951BH         LINE#         107
  C:951EH         LINE#         108
  C:9520H         LINE#         109
  C:9525H         LINE#         110
  C:9525H         LINE#         111
  C:9527H         LINE#         114
  C:952AH         LINE#         116
  C:952DH         LINE#         117
  C:952DH         LINE#         119
  C:952DH         LINE#         120
  C:952DH         LINE#         122
  C:952FH         LINE#         123
  C:952FH         LINE#         124
  C:9532H         LINE#         126
  C:9534H         LINE#         127
  C:9537H         LINE#         129
  C:953AH         LINE#         130
  C:953DH         LINE#         132
  C:9540H         LINE#         134
  C:9543H         LINE#         136
  C:9546H         LINE#         137
  C:9546H         LINE#         138
  C:9546H         LINE#         139
  C:9546H         LINE#         140
  C:9546H         LINE#         141
  C:9548H         LINE#         142
  C:954AH         LINE#         143
  -------         ENDPROC       _VTIMER1START
  -------         PROC          _VTIMERCLKSEL1
  X:045EH         SYMBOL        TimerNum
  X:045FH         SYMBOL        TimerClk
  C:9BB0H         LINE#         146
  C:9BB8H         LINE#         147
  C:9BB8H         LINE#         148
  C:9BD8H         LINE#         149
  C:9BD8H         LINE#         150
  C:9BD8H         LINE#         151
  C:9BD8H         LINE#         152
  C:9BD8H         LINE#         153
  C:9BD8H         LINE#         154
  C:9BDBH         LINE#         155
  C:9BDDH         LINE#         156
  C:9BDDH         LINE#         157
  C:9BDDH         LINE#         158
  C:9BDDH         LINE#         159
  C:9BDDH         LINE#         160
  C:9BE0H         LINE#         161
  C:9BE0H         LINE#         162
  C:9BE0H         LINE#         163
  C:9BE0H         LINE#         165
  C:9BE0H         LINE#         166
  C:9BE9H         LINE#         167
  C:9BE9H         LINE#         168
  C:9BECH         LINE#         169
BL51 BANKED LINKER/LOCATER V6.22                                                      11/23/2016  11:58:16  PAGE 49


  C:9BECH         LINE#         170
  C:9BEEH         LINE#         171
  C:9BFBH         LINE#         172
  C:9BFBH         LINE#         173
  C:9BFEH         LINE#         174
  C:9C04H         LINE#         175
  C:9C04H         LINE#         177
  -------         ENDPROC       _VTIMERCLKSEL1
  -------         PROC          _VTIMER1START1
  D:0006H         SYMBOL        TimerNum
  D:0004H         SYMBOL        Mode
  D:0002H         SYMBOL        InitValue
  X:045DH         SYMBOL        TimerClk
  C:954BH         LINE#         180
  C:954FH         LINE#         181
  C:954FH         LINE#         182
  C:9552H         LINE#         183
  C:955CH         LINE#         184
  C:9567H         LINE#         185
  C:9567H         LINE#         187
  C:9567H         LINE#         188
  C:956AH         LINE#         189
  C:956DH         LINE#         190
  C:956DH         LINE#         191
  C:956DH         LINE#         193
  C:956DH         LINE#         194
  C:956DH         LINE#         195
  C:956DH         LINE#         197
  C:956DH         LINE#         198
  C:956FH         LINE#         199
  C:9574H         LINE#         200
  C:9574H         LINE#         201
  C:9574H         LINE#         203
  C:9574H         LINE#         204
  C:9574H         LINE#         205
  C:9574H         LINE#         207
  C:9574H         LINE#         208
  C:9574H         LINE#         209
  C:9576H         LINE#         210
  C:9576H         LINE#         211
  C:9579H         LINE#         212
  C:957CH         LINE#         213
  C:957CH         LINE#         214
  C:957EH         LINE#         216
  C:9581H         LINE#         217
  C:9584H         LINE#         218
  C:9587H         LINE#         220
  C:958AH         LINE#         221
  C:958CH         LINE#         222
  C:9591H         LINE#         223
  C:9591H         LINE#         224
  C:9593H         LINE#         227
  C:9596H         LINE#         229
  C:9599H         LINE#         230
  C:9599H         LINE#         232
  C:9599H         LINE#         233
  C:9599H         LINE#         235
BL51 BANKED LINKER/LOCATER V6.22                                                      11/23/2016  11:58:16  PAGE 50


  C:959BH         LINE#         236
  C:959BH         LINE#         237
  C:959EH         LINE#         239
  C:95A0H         LINE#         240
  C:95A3H         LINE#         242
  C:95A6H         LINE#         243
  C:95A9H         LINE#         245
  C:95ACH         LINE#         247
  C:95AFH         LINE#         249
  C:95B2H         LINE#         250
  C:95B2H         LINE#         251
  C:95B2H         LINE#         252
  C:95B2H         LINE#         253
  C:95B2H         LINE#         254
  C:95B4H         LINE#         255
  C:95B6H         LINE#         256
  -------         ENDPROC       _VTIMER1START1
  -------         ENDMOD        TIMERFUNC

  -------         MODULE        WDTFUNC
  C:0000H         SYMBOL        _ICE_DUMMY_
  C:A31BH         PUBLIC        vClrWdtCounter
  C:A361H         PUBLIC        _vWdtInit
  D:0091H         PUBLIC        SCUMCG
  D:00E5H         PUBLIC        WDTMOD
  D:00E4H         PUBLIC        WDTCON
  -------         PROC          _VWDTINIT
  D:0007H         SYMBOL        InitTimer
  C:A361H         LINE#         32
  C:A361H         LINE#         33
  C:A361H         LINE#         34
  C:A364H         LINE#         35
  C:A367H         LINE#         36
  C:A36AH         LINE#         37
  C:A36CH         LINE#         38
  -------         ENDPROC       _VWDTINIT
  -------         PROC          VCLRWDTCOUNTER
  C:A31BH         LINE#         49
  C:A31BH         LINE#         50
  C:A31BH         LINE#         51
  C:A31BH         LINE#         52
  C:A31EH         LINE#         53
  C:A323H         LINE#         55
  C:A326H         LINE#         56
  C:A329H         LINE#         57
  -------         ENDPROC       VCLRWDTCOUNTER
  -------         ENDMOD        WDTFUNC

  -------         MODULE        HMAC
  C:0000H         SYMBOL        _ICE_DUMMY_
  C:687BH         PUBLIC        _HmacEx
  C:7EC4H         SYMBOL        _?ix1000
  C:7F04H         SYMBOL        _?ix1001
  C:7F44H         SYMBOL        _?ix1002
  C:7F84H         SYMBOL        _?ix1003
  C:7FC4H         SYMBOL        _?ix1004
  -------         PROC          _HMACEX
BL51 BANKED LINKER/LOCATER V6.22                                                      11/23/2016  11:58:16  PAGE 51


  X:00C0H         SYMBOL        u1HashAlgId
  X:00C1H         SYMBOL        pu1MacKey
  X:00C4H         SYMBOL        u2MacKeyLen
  X:00C6H         SYMBOL        pu1Msg
  X:00C9H         SYMBOL        u4MsgLen
  X:00CDH         SYMBOL        pu1OutMac
  X:00D0H         SYMBOL        pu2OutMacLen
  -------         DO            
  X:00D3H         SYMBOL        pu1Ipad
  X:0113H         SYMBOL        pu1Opad
  X:0153H         SYMBOL        pu1MacKeyBuf
  X:0193H         SYMBOL        u2Outlen
  X:0195H         SYMBOL        pu1KeyXorIpod
  X:01D5H         SYMBOL        pu1KeyXorOpod
  X:0255H         SYMBOL        u1BlockLen
  X:0256H         SYMBOL        pu1TempIn
  X:02A6H         SYMBOL        u4HashLen
  -------         ENDDO         
  C:687BH         LINE#         201
  C:6889H         LINE#         202
  C:6889H         LINE#         204
  C:689CH         LINE#         205
  C:68AFH         LINE#         206
  C:68C2H         LINE#         208
  C:68D5H         LINE#         209
  C:68E8H         LINE#         215
  C:68F8H         LINE#         216
  C:68F8H         LINE#         217
  C:68FDH         LINE#         218
  C:68FDH         LINE#         220
  C:6903H         LINE#         225
  C:6912H         LINE#         226
  C:6924H         LINE#         228
  C:6937H         LINE#         229
  C:6937H         LINE#         230
  C:6940H         LINE#         233
  C:6958H         LINE#         234
  C:6961H         LINE#         235
  C:6963H         LINE#         237
  C:6963H         LINE#         238
  C:697FH         LINE#         239
  C:697FH         LINE#         240
  C:69A6H         LINE#         242
  C:69BCH         LINE#         243
  C:69D2H         LINE#         244
  C:69F6H         LINE#         253
  C:6A0CH         LINE#         254
  C:6A33H         LINE#         255
  C:6A5AH         LINE#         269
  C:6A75H         LINE#         270
  C:6A7EH         LINE#         272
  C:6AA2H         LINE#         275
  C:6AC2H         LINE#         276
  C:6ADDH         LINE#         283
  C:6AFFH         LINE#         287
  C:6B11H         LINE#         293
  C:6B16H         LINE#         294
BL51 BANKED LINKER/LOCATER V6.22                                                      11/23/2016  11:58:16  PAGE 52


  -------         ENDPROC       _HMACEX
  -------         ENDMOD        HMAC

  -------         MODULE        SHA1
  C:0000H         SYMBOL        _ICE_DUMMY_
  C:81B9H         PUBLIC        _SHA1Data
  C:A279H         PUBLIC        g_pu1Sha1DefaultIV
  C:0EA4H         PUBLIC        _vSha1OneBlock
  C:A225H         PUBLIC        _vSha1GetDefaultIv
  C:6B17H         PUBLIC        _SHA1_CycleCompute0
  C:71C5H         PUBLIC        _SHA1_CycleCompute1
  C:65DDH         PUBLIC        _SHA1_CycleCompute2
  C:73DAH         PUBLIC        _SHA1_CycleCompute3
  -------         PROC          _VSHA1GETDEFAULTIV
  D:0006H         SYMBOL        pvIv
  C:A225H         LINE#         145
  C:A225H         LINE#         146
  C:A225H         LINE#         147
  -------         ENDPROC       _VSHA1GETDEFAULTIV
  -------         PROC          _SHA1_CYCLECOMPUTE0
  X:044FH         SYMBOL        pu4ABCDE
  X:0451H         SYMBOL        u4W
  -------         DO            
  X:0455H         SYMBOL        temp
  -------         ENDDO         
  C:6B17H         LINE#         150
  C:6B1FH         LINE#         151
  C:6B1FH         LINE#         154
  C:6C7AH         LINE#         157
  C:6CA1H         LINE#         158
  C:6CC8H         LINE#         159
  C:6D35H         LINE#         160
  C:6D50H         LINE#         161
  -------         ENDPROC       _SHA1_CYCLECOMPUTE0
  -------         PROC          _SHA1_CYCLECOMPUTE1
  X:044FH         SYMBOL        pu4ABCDE
  X:0451H         SYMBOL        u4W
  -------         DO            
  X:0455H         SYMBOL        temp
  -------         ENDDO         
  C:71C5H         LINE#         163
  C:71CDH         LINE#         164
  C:71CDH         LINE#         167
  C:72EFH         LINE#         170
  C:7316H         LINE#         171
  C:733DH         LINE#         172
  C:73AAH         LINE#         173
  C:73C5H         LINE#         174
  -------         ENDPROC       _SHA1_CYCLECOMPUTE1
  -------         PROC          _SHA1_CYCLECOMPUTE2
  X:044FH         SYMBOL        pu4ABCDE
  X:0451H         SYMBOL        u4W
  -------         DO            
  X:0455H         SYMBOL        temp
  -------         ENDDO         
  C:65DDH         LINE#         176
  C:65E5H         LINE#         177
BL51 BANKED LINKER/LOCATER V6.22                                                      11/23/2016  11:58:16  PAGE 53


  C:65E5H         LINE#         180
  C:6790H         LINE#         183
  C:67B7H         LINE#         184
  C:67DEH         LINE#         185
  C:684BH         LINE#         186
  C:6866H         LINE#         187
  -------         ENDPROC       _SHA1_CYCLECOMPUTE2
  -------         PROC          _SHA1_CYCLECOMPUTE3
  X:044FH         SYMBOL        pu4ABCDE
  X:0451H         SYMBOL        u4W
  -------         DO            
  X:0455H         SYMBOL        temp
  -------         ENDDO         
  C:73DAH         LINE#         189
  C:73E2H         LINE#         190
  C:73E2H         LINE#         193
  C:7504H         LINE#         196
  C:752BH         LINE#         197
  C:7552H         LINE#         198
  C:75BFH         LINE#         199
  C:75DAH         LINE#         200
  -------         ENDPROC       _SHA1_CYCLECOMPUTE3
  -------         PROC          L?0027
  -------         ENDPROC       L?0027
  -------         PROC          _VSHA1ONEBLOCK
  X:02F6H         SYMBOL        pu1HashData
  X:02F8H         SYMBOL        pu1Message
  -------         DO            
  X:02FAH         SYMBOL        t
  X:02FBH         SYMBOL        pu4W
  X:03FBH         SYMBOL        pu4ABCDE
  X:044BH         SYMBOL        u4Temp
  -------         ENDDO         
  C:0EA4H         LINE#         203
  C:0EB4H         LINE#         204
  C:0EB4H         LINE#         214
  C:0EC6H         LINE#         216
  C:0ED8H         LINE#         217
  C:0ED8H         LINE#         218
  C:0FB6H         LINE#         219
  C:0FE4H         LINE#         220
  C:0FEDH         LINE#         221
  C:0FF3H         LINE#         222
  C:0FF3H         LINE#         223
  C:1093H         LINE#         224
  C:10ECH         LINE#         225
  C:111AH         LINE#         226
  C:1129H         LINE#         228
  C:112FH         LINE#         229
  C:112FH         LINE#         230
  C:11CFH         LINE#         231
  C:1228H         LINE#         232
  C:1256H         LINE#         233
  C:1265H         LINE#         235
  C:126BH         LINE#         236
  C:126BH         LINE#         237
  C:130BH         LINE#         238
BL51 BANKED LINKER/LOCATER V6.22                                                      11/23/2016  11:58:16  PAGE 54


  C:1364H         LINE#         239
  C:1392H         LINE#         240
  C:13A1H         LINE#         242
  C:13A7H         LINE#         243
  C:13A7H         LINE#         244
  C:1447H         LINE#         245
  C:14A0H         LINE#         246
  C:14CEH         LINE#         247
  C:14DDH         LINE#         248
  C:15BFH         LINE#         249
  C:169BH         LINE#         250
  C:1777H         LINE#         251
  C:1853H         LINE#         252
  C:192FH         LINE#         254
  C:194AH         LINE#         259
  -------         ENDPROC       _VSHA1ONEBLOCK
  -------         PROC          _SHA1DATA
  X:02AAH         SYMBOL        pu1Output
  X:02ACH         SYMBOL        pu1Input
  X:02AEH         SYMBOL        u2DataSize
  -------         DO            
  X:02B0H         SYMBOL        u1BlockSize
  X:02B1H         SYMBOL        u1IvSize
  X:02B2H         SYMBOL        u4DataSize
  X:02B6H         SYMBOL        pu1Temp
  -------         ENDDO         
  C:81B9H         LINE#         261
  C:81CDH         LINE#         262
  C:81CDH         LINE#         268
  C:81E7H         LINE#         269
  C:81EDH         LINE#         270
  C:81F1H         LINE#         272
  C:81FCH         LINE#         273
  C:820FH         LINE#         274
  C:820FH         LINE#         275
  C:8220H         LINE#         276
  C:8233H         LINE#         277
  C:8240H         LINE#         278
  C:8242H         LINE#         279
  C:8254H         LINE#         280
  C:8271H         LINE#         281
  C:8285H         LINE#         282
  C:829CH         LINE#         283
  C:829CH         LINE#         284
  C:829FH         LINE#         285
  C:82B1H         LINE#         286
  C:82B1H         LINE#         287
  C:82B1H         LINE#         289
  C:832AH         LINE#         290
  C:832AH         LINE#         291
  C:832DH         LINE#         294
  -------         ENDPROC       _SHA1DATA
  -------         ENDMOD        SHA1

  -------         MODULE        I2C
  C:0000H         SYMBOL        _ICE_DUMMY_
  D:0090H         PUBLIC        SCUOSCCTRL
BL51 BANKED LINKER/LOCATER V6.22                                                      11/23/2016  11:58:16  PAGE 55


  C:9EEBH         PUBLIC        _writeFourBytesToROM
  D:00C2H         PUBLIC        IOMP0PU
  C:A342H         PUBLIC        I2C_DELAY
  C:8CB7H         PUBLIC        _readFromROM
  D:00C7H         PUBLIC        IOMP0DOUT
  C:A39AH         PUBLIC        I2C_Start
  D:00CEH         PUBLIC        IOMP1DIN
  D:0091H         PUBLIC        SCUMCG
  C:9E47H         PUBLIC        _writeByte
  C:A36DH         PUBLIC        I2C_Stop
  D:00C1H         PUBLIC        IOMP0DIR
  C:A1C5H         PUBLIC        _mDelay
  C:93FEH         PUBLIC        RecvACK
  C:8EDBH         PUBLIC        _writeToROM
  C:A15FH         PUBLIC        IIC_HostInit
  C:A3A3H         PUBLIC        sendNoAck
  C:A33CH         SYMBOL        L?0047
  -------         PROC          L?0046
  -------         ENDPROC       L?0046
  C:A33CH         SYMBOL        L?0047
  -------         PROC          I2C_DELAY
  C:A342H         LINE#         7
  C:A342H         LINE#         8
  C:A342H         LINE#         9
  C:A346H         LINE#         10
  -------         ENDPROC       I2C_DELAY
  -------         PROC          _MDELAY
  D:0007H         SYMBOL        k
  -------         DO            
  D:0004H         SYMBOL        i
  -------         ENDDO         
  C:A1C5H         LINE#         14
  C:A1C5H         LINE#         15
  C:A1C5H         LINE#         18
  C:A1CBH         LINE#         19
  C:A1CBH         LINE#         20
  C:A1D9H         LINE#         21
  C:A1DCH         LINE#         22
  -------         ENDPROC       _MDELAY
  -------         PROC          I2C_START
  C:A39AH         LINE#         26
  C:A39AH         LINE#         27
  C:A39AH         LINE#         28
  C:A39AH         LINE#         29
  C:A39AH         LINE#         31
  C:A39AH         LINE#         32
  C:A39DH         LINE#         34
  C:A3A0H         LINE#         35
  -------         ENDPROC       I2C_START
  -------         PROC          I2C_STOP
  C:A36DH         LINE#         41
  C:A36DH         LINE#         42
  C:A36DH         LINE#         43
  C:A370H         LINE#         44
  C:A370H         LINE#         46
  C:A370H         LINE#         47
  C:A373H         LINE#         49
BL51 BANKED LINKER/LOCATER V6.22                                                      11/23/2016  11:58:16  PAGE 56


  C:A376H         LINE#         50
  -------         ENDPROC       I2C_STOP
  -------         PROC          SENDNOACK
  C:A3A3H         LINE#         56
  C:A3A3H         LINE#         57
  C:A3A3H         LINE#         58
  C:A3A3H         LINE#         59
  C:A3A3H         LINE#         61
  C:A3A3H         LINE#         62
  C:A3A6H         LINE#         64
  C:A3A9H         LINE#         65
  -------         ENDPROC       SENDNOACK
  -------         PROC          RECVACK
  -------         DO            
  D:0007H         SYMBOL        data_temp
  -------         ENDDO         
  C:93FEH         LINE#         71
  C:93FEH         LINE#         72
  C:93FEH         LINE#         73
  C:93FEH         LINE#         75
  C:9401H         LINE#         76
  C:9409H         LINE#         77
  C:9411H         LINE#         78
  C:9414H         LINE#         79
  C:9419H         LINE#         81
  C:941CH         LINE#         82
  C:9424H         LINE#         83
  C:942CH         LINE#         84
  C:9431H         LINE#         85
  C:9434H         LINE#         86
  C:943CH         LINE#         87
  C:9444H         LINE#         88
  C:944CH         LINE#         89
  C:9454H         LINE#         90
  C:945CH         LINE#         91
  C:9464H         LINE#         92
  C:946CH         LINE#         93
  C:946EH         LINE#         95
  C:9471H         LINE#         97
  C:9471H         LINE#         98
  -------         ENDPROC       RECVACK
  -------         PROC          L?0045
  -------         ENDPROC       L?0045
  -------         PROC          _WRITEBYTE
  D:0007H         SYMBOL        datum
  -------         DO            
  D:0006H         SYMBOL        bitCnt
  -------         ENDDO         
  C:9E47H         LINE#         104
  C:9E47H         LINE#         105
  C:9E47H         LINE#         108
  C:9E49H         LINE#         109
  C:9E49H         LINE#         110
  C:9E4CH         LINE#         111
  C:9E4FH         LINE#         113
  C:9E53H         LINE#         114
  C:9E53H         LINE#         115
BL51 BANKED LINKER/LOCATER V6.22                                                      11/23/2016  11:58:16  PAGE 57


  C:9E56H         LINE#         116
  C:9E58H         LINE#         118
  C:9E58H         LINE#         119
  C:9E5BH         LINE#         120
  C:9E5BH         LINE#         121
  C:9E5BH         LINE#         123
  C:9E5BH         LINE#         124
  C:9E5EH         LINE#         125
  C:9E63H         LINE#         127
  C:9E67H         LINE#         128
  C:9E6CH         LINE#         130
  -------         ENDPROC       _WRITEBYTE
  -------         PROC          _WRITEFOURBYTESTOROM
  D:0001H         SYMBOL        datum
  D:0004H         SYMBOL        address
  X:07A2H         SYMBOL        num
  -------         DO            
  D:0004H         SYMBOL        i
  X:07A4H         SYMBOL        datum_P
  -------         ENDDO         
  C:9EEBH         LINE#         133
  C:9EEBH         LINE#         134
  C:9EEBH         LINE#         137
  C:9EEEH         LINE#         139
  C:9EEEH         LINE#         141
  C:9EEEH         LINE#         143
  C:9EEEH         LINE#         145
  C:9EF1H         LINE#         147
  C:9F01H         LINE#         148
  C:9F01H         LINE#         149
  C:9F17H         LINE#         151
  C:9F1EH         LINE#         153
  -------         ENDPROC       _WRITEFOURBYTESTOROM
  -------         PROC          _WRITETOROM
  D:0001H         SYMBOL        pData
  D:0004H         SYMBOL        TarAddr
  X:0785H         SYMBOL        NbByte
  -------         DO            
  X:0787H         SYMBOL        align_mem_offset
  X:0788H         SYMBOL        bytes_to_write
  X:078AH         SYMBOL        mem_addr
  X:078CH         SYMBOL        pdata_index
  -------         ENDDO         
  C:8EDBH         LINE#         161
  C:8EDBH         LINE#         162
  C:8EDBH         LINE#         164
  C:8EEAH         LINE#         165
  C:8EF2H         LINE#         166
  C:8EFBH         LINE#         169
  C:8EFBH         LINE#         170
  C:8F0BH         LINE#         171
  C:8F0BH         LINE#         172
  C:8F19H         LINE#         173
  C:8F1BH         LINE#         175
  C:8F1BH         LINE#         176
  C:8F20H         LINE#         177
  C:8F20H         LINE#         178
BL51 BANKED LINKER/LOCATER V6.22                                                      11/23/2016  11:58:16  PAGE 58


  C:8F43H         LINE#         179
  C:8F48H         LINE#         181
  C:8F59H         LINE#         182
  C:8F65H         LINE#         183
  C:8F77H         LINE#         185
  C:8F82H         LINE#         186
  -------         ENDPROC       _WRITETOROM
  -------         PROC          _READFROMROM
  D:0001H         SYMBOL        datum
  D:0004H         SYMBOL        address
  X:0048H         SYMBOL        num
  -------         DO            
  D:0004H         SYMBOL        i
  X:004AH         SYMBOL        datum_P
  X:004DH         SYMBOL        tempbit
  X:004EH         SYMBOL        temp
  D:0007H         SYMBOL        bitCnt
  -------         ENDDO         
  C:8CB7H         LINE#         192
  C:8CB7H         LINE#         193
  C:8CB7H         LINE#         197
  C:8CBDH         LINE#         198
  C:8CC0H         LINE#         201
  C:8CC3H         LINE#         203
  C:8CC3H         LINE#         205
  C:8CC3H         LINE#         207
  C:8CC3H         LINE#         209
  C:8CC6H         LINE#         211
  C:8CC9H         LINE#         212
  C:8CCEH         LINE#         214
  C:8CE1H         LINE#         215
  C:8CE1H         LINE#         217
  C:8CE4H         LINE#         219
  C:8CE6H         LINE#         220
  C:8CE6H         LINE#         221
  C:8CE9H         LINE#         222
  C:8CEAH         LINE#         224
  C:8CEDH         LINE#         225
  C:8CF5H         LINE#         226
  C:8CF8H         LINE#         228
  C:8CFBH         LINE#         229
  C:8D02H         LINE#         231
  C:8D09H         LINE#         233
  C:8D0CH         LINE#         235
  C:8D12H         LINE#         236
  C:8D1AH         LINE#         238
  C:8D1FH         LINE#         240
  C:8D27H         LINE#         241
  C:8D29H         LINE#         243
  C:8D2CH         LINE#         245
  C:8D44H         LINE#         247
  C:8D47H         LINE#         249
  C:8D4AH         LINE#         250
  C:8D52H         LINE#         251
  C:8D5AH         LINE#         252
  C:8D60H         LINE#         254
  C:8D63H         LINE#         255
BL51 BANKED LINKER/LOCATER V6.22                                                      11/23/2016  11:58:16  PAGE 59


  C:8D66H         LINE#         256
  C:8D6EH         LINE#         257
  C:8D71H         LINE#         259
  -------         ENDPROC       _READFROMROM
  -------         PROC          IIC_HOSTINIT
  C:A15FH         LINE#         265
  C:A15FH         LINE#         266
  C:A15FH         LINE#         267
  C:A16AH         LINE#         269
  C:A16DH         LINE#         271
  C:A170H         LINE#         272
  C:A173H         LINE#         274
  C:A176H         LINE#         275
  C:A179H         LINE#         276
  -------         ENDPROC       IIC_HOSTINIT
  -------         ENDMOD        I2C

  -------         MODULE        UC8118
  C:0000H         SYMBOL        _ICE_DUMMY_
  C:9938H         PUBLIC        LUT_spi_write_wb_bw_w
  C:9815H         PUBLIC        LUT_spi_write_bb_ww_w
  C:850FH         PUBLIC        LUT_T1_K
  C:A3ACH         PUBLIC        ElcPaper_Init
  C:79BFH         PUBLIC        _vPaper_String_Display
  D:0090H         PUBLIC        SCUOSCCTRL
  D:00C2H         PUBLIC        IOMP0PU
  D:00CAH         PUBLIC        IOMP1PU
  C:84F1H         PUBLIC        LUT_T1_V
  X:05FAH         PUBLIC        Pixel_Set
  C:852DH         PUBLIC        LUT_T1_W
  C:9FC8H         PUBLIC        _EPD_W21_Write_CMD_DATA
  C:9D4FH         PUBLIC        _vPaper_Bcd_Display
  C:84B5H         PUBLIC        LUT_T1_BLACK
  X:065AH         PUBLIC        Send_Num
  D:00C7H         PUBLIC        IOMP0DOUT
  D:00CFH         PUBLIC        IOMP1DOUT
  C:A20DH         PUBLIC        LUT_spi_write_wb_bw
  C:A1F5H         PUBLIC        LUT_spi_write_bb_ww
  C:A390H         PUBLIC        _LUT_spi_write
  C:A1DDH         PUBLIC        _driver_delay_xms
  C:84D3H         PUBLIC        LUT_T1_WHITE
  C:9C0BH         PUBLIC        _SPI_Delay
  C:8594H         PUBLIC        Num_Seg_Set
  C:9C59H         PUBLIC        Paper_All_Clear
  C:9876H         PUBLIC        LUT_spi_write_wb_bw_vcom
  C:9753H         PUBLIC        LUT_spi_write_bb_ww_vcom
  D:00CEH         PUBLIC        IOMP1DIN
  D:0091H         PUBLIC        SCUMCG
  D:00C1H         PUBLIC        IOMP0DIR
  D:00C9H         PUBLIC        IOMP1DIR
  C:A0BCH         PUBLIC        _SPI_Write
  C:8555H         PUBLIC        Pixel_Addr
  C:854BH         PUBLIC        Paper_Num_Assic
  C:9F83H         PUBLIC        SPI_Init
  C:A30BH         PUBLIC        poweroff_sleep
  C:98D7H         PUBLIC        LUT_spi_write_wb_bw_b
  C:97B4H         PUBLIC        LUT_spi_write_bb_ww_b
BL51 BANKED LINKER/LOCATER V6.22                                                      11/23/2016  11:58:16  PAGE 60


  C:A122H         PUBLIC        EPD_W21_Init
  C:9E6FH         PUBLIC        UC8118_SETTING
  C:8497H         PUBLIC        LUT_T1_VCOM
  C:A32AH         PUBLIC        display
  -------         PROC          _DRIVER_DELAY_XMS
  D:0007H         SYMBOL        xms
  -------         DO            
  D:0004H         SYMBOL        i
  -------         ENDDO         
  C:A1DDH         LINE#         62
  C:A1DDH         LINE#         63
  C:A1DDH         LINE#         66
  C:A1E3H         LINE#         67
  C:A1E3H         LINE#         68
  C:A1F1H         LINE#         69
  C:A1F4H         LINE#         70
  -------         ENDPROC       _DRIVER_DELAY_XMS
  -------         PROC          ELCPAPER_INIT
  C:A3ACH         LINE#         74
  C:A3ACH         LINE#         75
  C:A3ACH         LINE#         76
  C:A3AFH         LINE#         77
  C:A3B2H         LINE#         78
  -------         ENDPROC       ELCPAPER_INIT
  -------         PROC          SPI_INIT
  C:9F83H         LINE#         80
  C:9F83H         LINE#         81
  C:9F83H         LINE#         82
  C:9F8EH         LINE#         84
  C:9F91H         LINE#         87
  C:9F94H         LINE#         88
  C:9F97H         LINE#         89
  C:9F9AH         LINE#         90
  C:9F9DH         LINE#         91
  C:9FA0H         LINE#         93
  C:9FA3H         LINE#         96
  C:9FA6H         LINE#         97
  C:9FA9H         LINE#         98
  C:9FACH         LINE#         99
  C:9FAFH         LINE#         100
  C:9FB2H         LINE#         103
  -------         ENDPROC       SPI_INIT
  -------         PROC          UC8118_SETTING
  C:9E6FH         LINE#         105
  C:9E6FH         LINE#         106
  C:9E6FH         LINE#         107
  C:9E77H         LINE#         108
  C:9E7CH         LINE#         109
  C:9E83H         LINE#         110
  C:9E88H         LINE#         111
  C:9E8DH         LINE#         112
  C:9E92H         LINE#         113
  C:9E9AH         LINE#         114
  C:9E9FH         LINE#         115
  C:9EA4H         LINE#         116
  C:9EA9H         LINE#         117
  -------         ENDPROC       UC8118_SETTING
BL51 BANKED LINKER/LOCATER V6.22                                                      11/23/2016  11:58:16  PAGE 61


  -------         PROC          L?0114
  -------         ENDPROC       L?0114
  -------         PROC          _SPI_DELAY
  X:0001H         SYMBOL        xrate
  -------         DO            
  X:0005H         SYMBOL        i
  D:0006H         SYMBOL        j
  -------         ENDDO         
  C:9C0BH         LINE#         120
  C:9C11H         LINE#         121
  C:9C11H         LINE#         123
  C:9C3AH         LINE#         124
  C:9C58H         LINE#         125
  -------         ENDPROC       _SPI_DELAY
  -------         PROC          EPD_W21_INIT
  C:A122H         LINE#         127
  C:A122H         LINE#         128
  C:A122H         LINE#         129
  C:A125H         LINE#         130
  C:A128H         LINE#         131
  C:A12DH         LINE#         132
  C:A130H         LINE#         133
  C:A135H         LINE#         134
  C:A138H         LINE#         135
  -------         ENDPROC       EPD_W21_INIT
  -------         PROC          _SPI_WRITE
  D:0007H         SYMBOL        value
  -------         DO            
  D:0006H         SYMBOL        i
  -------         ENDDO         
  C:A0BCH         LINE#         138
  C:A0BCH         LINE#         139
  C:A0BCH         LINE#         140
  C:A0BCH         LINE#         142
  C:A0BFH         LINE#         144
  C:A0C2H         LINE#         147
  C:A0C4H         LINE#         148
  C:A0C4H         LINE#         149
  C:A0C8H         LINE#         150
  C:A0C8H         LINE#         151
  C:A0CBH         LINE#         152
  C:A0CDH         LINE#         154
  C:A0CDH         LINE#         155
  C:A0D0H         LINE#         156
  C:A0D0H         LINE#         159
  C:A0D3H         LINE#         160
  C:A0D7H         LINE#         162
  C:A0DAH         LINE#         164
  C:A0DFH         LINE#         165
  -------         ENDPROC       _SPI_WRITE
  C:9FB3H         SYMBOL        L?0111
  C:9FC3H         SYMBOL        L?0112
  C:9FC4H         SYMBOL        L?0113
  -------         PROC          L?0110
  -------         ENDPROC       L?0110
  C:9FB3H         SYMBOL        L?0111
  C:9FC3H         SYMBOL        L?0112
BL51 BANKED LINKER/LOCATER V6.22                                                      11/23/2016  11:58:16  PAGE 62


  C:9FC4H         SYMBOL        L?0113
  -------         PROC          _EPD_W21_WRITE_CMD_DATA
  D:0006H         SYMBOL        dc
  D:0005H         SYMBOL        command
  C:9FC8H         LINE#         167
  C:9FC8H         LINE#         168
  C:9FC8H         LINE#         169
  C:9FCBH         LINE#         171
  C:9FCEH         LINE#         173
  C:9FD2H         LINE#         174
  C:9FD2H         LINE#         175
  C:9FD5H         LINE#         176
  C:9FD7H         LINE#         178
  C:9FD7H         LINE#         179
  C:9FDAH         LINE#         180
  C:9FDAH         LINE#         181
  C:9FDFH         LINE#         183
  C:9FE2H         LINE#         184
  -------         ENDPROC       _EPD_W21_WRITE_CMD_DATA
  -------         PROC          POWEROFF_SLEEP
  C:A30BH         LINE#         189
  C:A30BH         LINE#         190
  C:A30BH         LINE#         191
  C:A313H         LINE#         192
  -------         ENDPROC       POWEROFF_SLEEP
  -------         PROC          DISPLAY
  C:A32AH         LINE#         198
  C:A32AH         LINE#         199
  C:A32AH         LINE#         200
  C:A332H         LINE#         201
  -------         ENDPROC       DISPLAY
  -------         PROC          _LUT_SPI_WRITE
  D:0007H         SYMBOL        k
  C:A390H         LINE#         208
  C:A390H         LINE#         209
  C:A390H         LINE#         210
  C:A393H         LINE#         211
  C:A393H         LINE#         212
  C:A396H         LINE#         213
  C:A396H         LINE#         215
  C:A399H         LINE#         216
  -------         ENDPROC       _LUT_SPI_WRITE
  -------         PROC          LUT_SPI_WRITE_BB_WW
  C:A1F5H         LINE#         221
  C:A1F5H         LINE#         222
  C:A1F5H         LINE#         223
  C:A1F8H         LINE#         224
  C:A1FDH         LINE#         225
  C:A200H         LINE#         226
  C:A205H         LINE#         227
  C:A208H         LINE#         228
  -------         ENDPROC       LUT_SPI_WRITE_BB_WW
  -------         PROC          LUT_SPI_WRITE_BB_WW_VCOM
  -------         DO            
  X:0001H         SYMBOL        i
  -------         ENDDO         
  C:9753H         LINE#         233
BL51 BANKED LINKER/LOCATER V6.22                                                      11/23/2016  11:58:16  PAGE 63


  C:9753H         LINE#         234
  C:9753H         LINE#         236
  C:975BH         LINE#         237
  C:977FH         LINE#         238
  C:977FH         LINE#         239
  C:978EH         LINE#         240
  C:97AFH         LINE#         241
  -------         ENDPROC       LUT_SPI_WRITE_BB_WW_VCOM
  -------         PROC          LUT_SPI_WRITE_BB_WW_B
  -------         DO            
  X:0001H         SYMBOL        i
  -------         ENDDO         
  C:97B4H         LINE#         246
  C:97B4H         LINE#         247
  C:97B4H         LINE#         250
  C:97BCH         LINE#         251
  C:97E0H         LINE#         252
  C:97E0H         LINE#         253
  C:97EFH         LINE#         254
  C:9810H         LINE#         255
  -------         ENDPROC       LUT_SPI_WRITE_BB_WW_B
  -------         PROC          LUT_SPI_WRITE_BB_WW_W
  -------         DO            
  X:0001H         SYMBOL        i
  -------         ENDDO         
  C:9815H         LINE#         260
  C:9815H         LINE#         261
  C:9815H         LINE#         263
  C:981DH         LINE#         264
  C:9841H         LINE#         265
  C:9841H         LINE#         266
  C:9850H         LINE#         267
  C:9871H         LINE#         268
  -------         ENDPROC       LUT_SPI_WRITE_BB_WW_W
  -------         PROC          LUT_SPI_WRITE_WB_BW
  C:A20DH         LINE#         274
  C:A20DH         LINE#         275
  C:A20DH         LINE#         276
  C:A210H         LINE#         277
  C:A215H         LINE#         278
  C:A218H         LINE#         279
  C:A21DH         LINE#         280
  C:A220H         LINE#         281
  -------         ENDPROC       LUT_SPI_WRITE_WB_BW
  -------         PROC          LUT_SPI_WRITE_WB_BW_VCOM
  -------         DO            
  X:0001H         SYMBOL        i
  -------         ENDDO         
  C:9876H         LINE#         286
  C:9876H         LINE#         287
  C:9876H         LINE#         289
  C:987EH         LINE#         290
  C:98A2H         LINE#         291
  C:98A2H         LINE#         292
  C:98B1H         LINE#         293
  C:98D2H         LINE#         294
  -------         ENDPROC       LUT_SPI_WRITE_WB_BW_VCOM
BL51 BANKED LINKER/LOCATER V6.22                                                      11/23/2016  11:58:16  PAGE 64


  -------         PROC          LUT_SPI_WRITE_WB_BW_B
  -------         DO            
  X:0001H         SYMBOL        i
  -------         ENDDO         
  C:98D7H         LINE#         299
  C:98D7H         LINE#         300
  C:98D7H         LINE#         302
  C:98DFH         LINE#         303
  C:9903H         LINE#         304
  C:9903H         LINE#         305
  C:9912H         LINE#         307
  C:9933H         LINE#         308
  -------         ENDPROC       LUT_SPI_WRITE_WB_BW_B
  -------         PROC          LUT_SPI_WRITE_WB_BW_W
  -------         DO            
  X:0001H         SYMBOL        i
  -------         ENDDO         
  C:9938H         LINE#         313
  C:9938H         LINE#         314
  C:9938H         LINE#         316
  C:9940H         LINE#         317
  C:9964H         LINE#         318
  C:9964H         LINE#         319
  C:9973H         LINE#         321
  C:9994H         LINE#         322
  -------         ENDPROC       LUT_SPI_WRITE_WB_BW_W
  -------         PROC          _VPAPER_BCD_DISPLAY
  D:0007H         SYMBOL        position
  D:0005H         SYMBOL        num
  -------         DO            
  D:0006H         SYMBOL        i
  -------         ENDDO         
  C:9D4FH         LINE#         326
  C:9D4FH         LINE#         327
  C:9D4FH         LINE#         332
  C:9D51H         LINE#         333
  C:9D51H         LINE#         334
  C:9D98H         LINE#         335
  C:9D9DH         LINE#         336
  -------         ENDPROC       _VPAPER_BCD_DISPLAY
  -------         PROC          _VPAPER_STRING_DISPLAY
  X:0043H         SYMBOL        cString
  X:0046H         SYMBOL        cLen
  -------         DO            
  X:0047H         SYMBOL        i
  X:0048H         SYMBOL        j
  D:0007H         SYMBOL        m
  -------         ENDDO         
  C:79BFH         LINE#         339
  C:79CDH         LINE#         340
  C:79CDH         LINE#         341
  C:79CDH         LINE#         343
  C:79D8H         LINE#         345
  C:79E7H         LINE#         346
  C:79FAH         LINE#         347
  C:79FAH         LINE#         349
  C:79FAH         LINE#         352
BL51 BANKED LINKER/LOCATER V6.22                                                      11/23/2016  11:58:16  PAGE 65


  C:7A0AH         LINE#         353
  C:7A0AH         LINE#         354
  C:7A17H         LINE#         355
  C:7A17H         LINE#         356
  C:7A38H         LINE#         357
  C:7A38H         LINE#         358
  C:7A4DH         LINE#         359
  C:7A4DH         LINE#         360
  C:7A4DH         LINE#         361
  C:7A55H         LINE#         362
  C:7A5DH         LINE#         365
  C:7A5FH         LINE#         366
  C:7A5FH         LINE#         367
  C:7B0FH         LINE#         369
  C:7B18H         LINE#         371
  C:7B20H         LINE#         372
  C:7B2FH         LINE#         373
  C:7B2FH         LINE#         374
  C:7B3DH         LINE#         375
  C:7B45H         LINE#         376
  C:7B4AH         LINE#         378
  C:7B4DH         LINE#         379
  C:7B5BH         LINE#         380
  C:7B77H         LINE#         382
  -------         ENDPROC       _VPAPER_STRING_DISPLAY
  -------         PROC          PAPER_ALL_CLEAR
  -------         DO            
  D:0004H         SYMBOL        j
  -------         ENDDO         
  C:9C59H         LINE#         383
  C:9C59H         LINE#         384
  C:9C59H         LINE#         385
  C:9C59H         LINE#         386
  C:9C64H         LINE#         387
  C:9C6CH         LINE#         389
  C:9C6EH         LINE#         390
  C:9C6EH         LINE#         392
  C:9C73H         LINE#         393
  C:9C78H         LINE#         394
  C:9C7DH         LINE#         396
  C:9C80H         LINE#         397
  C:9C8EH         LINE#         398
  C:9CAAH         LINE#         400
  -------         ENDPROC       PAPER_ALL_CLEAR
  -------         ENDMOD        UC8118

  -------         MODULE        ISRFRAME
  C:0000H         SYMBOL        _ICE_DUMMY_
  C:9B05H         PUBLIC        vTF0_ISR
  C:9CFDH         PUBLIC        vTF1_ISR
  C:9CABH         PUBLIC        vEX0_ISR
  C:9307H         PUBLIC        vEX1_ISR
  B:00A8H.4       PUBLIC        ES
  D:00D4H         PUBLIC        UARTBUF
  D:00B3H         PUBLIC        TM0CON
  D:009AH         PUBLIC        SCUIS0
  D:009BH         PUBLIC        SCUIS1
BL51 BANKED LINKER/LOCATER V6.22                                                      11/23/2016  11:58:16  PAGE 66


  D:00B5H         PUBLIC        TM1INTSTS
  D:00A5H         PUBLIC        TM2INTSTS
  D:00DFH         PUBLIC        TBCINTSTS
  B:00A8H.1       PUBLIC        ET0
  B:00A8H.3       PUBLIC        ET1
  B:00A8H.0       PUBLIC        EX0
  B:00A8H.2       PUBLIC        EX1
  C:99F9H         PUBLIC        vSI_ISR
  D:00D6H         PUBLIC        UARTSTAT
  -------         PROC          VEX0_ISR
  C:9CABH         LINE#         17
  C:9CC8H         LINE#         19
  C:9CCBH         LINE#         20
  C:9CCDH         LINE#         23
  C:9CD2H         LINE#         24
  C:9CD2H         LINE#         27
  C:9CD5H         LINE#         28
  C:9CD5H         LINE#         30
  C:9CDAH         LINE#         31
  C:9CDAH         LINE#         32
  C:9CDDH         LINE#         33
  C:9CDDH         LINE#         36
  C:9CDDH         LINE#         37
  C:9CDDH         LINE#         44
  C:9CDDH         LINE#         46
  C:9CDFH         LINE#         47
  C:9CE2H         LINE#         48
  -------         ENDPROC       VEX0_ISR
  -------         PROC          VTF0_ISR
  C:9B05H         LINE#         51
  C:9B22H         LINE#         53
  C:9B25H         LINE#         54
  C:9B27H         LINE#         57
  C:9B2CH         LINE#         58
  C:9B2CH         LINE#         60
  C:9B32H         LINE#         64
  C:9B38H         LINE#         67
  C:9B3BH         LINE#         69
  C:9B3BH         LINE#         71
  C:9B3DH         LINE#         72
  C:9B40H         LINE#         73
  -------         ENDPROC       VTF0_ISR
  -------         PROC          VEX1_ISR
  C:9307H         LINE#         75
  C:9324H         LINE#         77
  C:9327H         LINE#         78
  C:9329H         LINE#         83
  C:932EH         LINE#         84
  C:932EH         LINE#         85
  C:9331H         LINE#         89
  C:9337H         LINE#         91
  C:9337H         LINE#         92
  C:933CH         LINE#         93
  C:933CH         LINE#         94
  C:933FH         LINE#         96
  C:9342H         LINE#         99
  C:9353H         LINE#         100
BL51 BANKED LINKER/LOCATER V6.22                                                      11/23/2016  11:58:16  PAGE 67


  C:9359H         LINE#         102
  C:9359H         LINE#         103
  C:935EH         LINE#         104
  C:935EH         LINE#         105
  C:9361H         LINE#         110
  C:9361H         LINE#         111
  C:9366H         LINE#         112
  C:9366H         LINE#         114
  C:9369H         LINE#         121
  C:9369H         LINE#         125
  C:936BH         LINE#         126
  C:936EH         LINE#         127
  -------         ENDPROC       VEX1_ISR
  -------         PROC          VTF1_ISR
  C:9CFDH         LINE#         128
  C:9D1AH         LINE#         130
  C:9D1DH         LINE#         131
  C:9D1FH         LINE#         135
  C:9D24H         LINE#         136
  C:9D24H         LINE#         137
  C:9D27H         LINE#         140
  C:9D27H         LINE#         143
  C:9D2CH         LINE#         144
  C:9D2CH         LINE#         145
  C:9D2FH         LINE#         147
  C:9D2FH         LINE#         150
  C:9D31H         LINE#         151
  C:9D34H         LINE#         152
  -------         ENDPROC       VTF1_ISR
  -------         PROC          VSI_ISR
  C:99F9H         LINE#         154
  C:9A16H         LINE#         156
  C:9A19H         LINE#         157
  C:9A1BH         LINE#         160
  C:9A20H         LINE#         161
  C:9A20H         LINE#         162
  C:9A34H         LINE#         163
  C:9A37H         LINE#         164
  C:9A37H         LINE#         165
  C:9A37H         LINE#         167
  C:9A37H         LINE#         168
  C:9A37H         LINE#         195
  C:9A39H         LINE#         196
  C:9A3CH         LINE#         197
  -------         ENDPROC       VSI_ISR
  -------         ENDMOD        ISRFRAME

  -------         MODULE        OTPFRAME
  C:0000H         SYMBOL        _ICE_DUMMY_
  D:00F9H         PUBLIC        SCULCDSWEN
  I:0030H         PUBLIC        gsuperpw
  I:00B1H         PUBLIC        g_SNLen
  D:0092H         PUBLIC        SCUPM
  D:0090H         PUBLIC        SCUOSCCTRL
  I:0068H         PUBLIC        gToken_Time1
  I:0038H         PUBLIC        g_ModfyPwFlag
  I:00A0H         PUBLIC        g_u1SN
BL51 BANKED LINKER/LOCATER V6.22                                                      11/23/2016  11:58:16  PAGE 68


  I:006CH         PUBLIC        gToken_Time2
  X:074BH         PUBLIC        gu1DetectErrFlag
  I:0031H         PUBLIC        gUseCase
  I:0040H         PUBLIC        gUserInfo
  D:0095H         PUBLIC        SCUWT
  I:0090H         PUBLIC        g_u1Key
  I:0036H         PUBLIC        gUnlockPinErr_Count
  I:0070H         PUBLIC        g_u1SeedKey
  X:074CH         PUBLIC        LongPressFlag
  C:8F83H         PUBLIC        _HexToStr
  X:074DH         PUBLIC        gSecCount_10S
  I:003EH         PUBLIC        gPinErr_Count
  D:0098H         PUBLIC        SCUIE0
  I:0080H         PUBLIC        g_u1MacKey
  I:003AH         PUBLIC        gPinErr_Time
  C:4E59H         PUBLIC        _GetBaseTime
  C:8844H         PUBLIC        _Get2121Chk2
  I:0032H         PUBLIC        gTimer_Count_Base
  D:0096H         PUBLIC        SCUWE0
  C:A2B4H         PUBLIC        _DectoBCD
  X:074EH         PUBLIC        _TIMER_FLAG_
  C:5FF3H         PUBLIC        VOTP_TimeToken
  D:00DFH         PUBLIC        TBCINTSTS
  C:459AH         PUBLIC        vOTP_InitProcess
  X:074FH         PUBLIC        gFlag_1S
  X:0750H         PUBLIC        g_AutoUnlockFlag
  X:0751H         PUBLIC        DispKeyPad
  D:0093H         PUBLIC        SCUPMP
  X:0759H         PUBLIC        u1FirstSetFlag
  I:0060H         PUBLIC        gToken_Save
  I:003FH         PUBLIC        gCalibflag
  X:075AH         PUBLIC        u1LowPowerFlag
  D:00DAH         PUBLIC        TBCSTART
  D:00D9H         PUBLIC        TBCADJH
  X:075BH         PUBLIC        u1Time_Dispaly
  D:00D8H         PUBLIC        TBCADJL
  I:0037H         PUBLIC        g_AutoUnlockCnt
  C:9EAEH         PUBLIC        vOTP_InvalidProcess
  D:00C0H         PUBLIC        IOMCR
  -------         PROC          _GETBASETIME
  X:0043H         SYMBOL        TimeInput
  -------         DO            
  X:0046H         SYMBOL        Ticks
  X:004AH         SYMBOL        k
  D:0006H         SYMBOL        u2Tmp
  -------         ENDDO         
  C:4E59H         LINE#         98
  C:4E64H         LINE#         99
  C:4E64H         LINE#         104
  C:4E6CH         LINE#         107
  C:4E76H         LINE#         108
  C:4E9CH         LINE#         109
  C:4E9CH         LINE#         110
  C:4EBDH         LINE#         111
  C:4EC2H         LINE#         112
  C:4EC2H         LINE#         113
  C:4EE2H         LINE#         114
BL51 BANKED LINKER/LOCATER V6.22                                                      11/23/2016  11:58:16  PAGE 69


  C:4EE2H         LINE#         115
  C:4EF0H         LINE#         116
  C:4EF2H         LINE#         118
  C:4F09H         LINE#         119
  C:4F09H         LINE#         120
  C:4F29H         LINE#         121
  C:4F29H         LINE#         123
  C:4F2FH         LINE#         124
  C:4F2FH         LINE#         125
  C:4F47H         LINE#         126
  C:4F47H         LINE#         127
  C:4F57H         LINE#         128
  C:4F59H         LINE#         130
  C:4F59H         LINE#         131
  C:4F76H         LINE#         132
  C:4F76H         LINE#         133
  C:4F76H         LINE#         135
  C:4F8CH         LINE#         136
  C:4F8CH         LINE#         137
  C:4FACH         LINE#         138
  C:4FACH         LINE#         140
  C:4FB8H         LINE#         141
  C:4FB8H         LINE#         142
  C:4FD8H         LINE#         143
  C:4FD8H         LINE#         145
  C:4FDEH         LINE#         146
  C:4FDEH         LINE#         147
  C:4FFEH         LINE#         148
  C:4FFEH         LINE#         150
  C:5014H         LINE#         151
  C:5014H         LINE#         152
  C:5034H         LINE#         153
  C:5034H         LINE#         155
  C:5040H         LINE#         156
  C:5040H         LINE#         157
  C:5060H         LINE#         158
  C:5060H         LINE#         160
  C:5066H         LINE#         161
  C:5066H         LINE#         162
  C:5086H         LINE#         163
  C:5086H         LINE#         165
  C:509CH         LINE#         166
  C:509CH         LINE#         167
  C:50BCH         LINE#         168
  C:50BCH         LINE#         170
  C:50C8H         LINE#         171
  C:50C8H         LINE#         172
  C:50E8H         LINE#         173
  C:50E8H         LINE#         175
  C:50EEH         LINE#         176
  C:50EEH         LINE#         177
  C:510EH         LINE#         178
  C:510EH         LINE#         180
  C:512DH         LINE#         181
  C:5150H         LINE#         182
  C:5166H         LINE#         183
  C:518AH         LINE#         184
BL51 BANKED LINKER/LOCATER V6.22                                                      11/23/2016  11:58:16  PAGE 70


  C:51D0H         LINE#         185
  C:51EDH         LINE#         186
  C:5233H         LINE#         189
  C:5241H         LINE#         190
  -------         ENDPROC       _GETBASETIME
  -------         PROC          _DECTOBCD
  D:0007H         SYMBOL        temp
  C:A2B4H         LINE#         192
  C:A2B4H         LINE#         193
  C:A2B4H         LINE#         194
  C:A2C6H         LINE#         195
  -------         ENDPROC       _DECTOBCD
  -------         PROC          _HEXTOSTR
  X:0028H         SYMBOL        pbDest
  X:002BH         SYMBOL        pbSrc
  X:002EH         SYMBOL        nLen
  -------         DO            
  D:0007H         SYMBOL        ddl
  D:0006H         SYMBOL        ddh
  D:0005H         SYMBOL        i
  -------         ENDDO         
  C:8F83H         LINE#         197
  C:8F8EH         LINE#         198
  C:8F8EH         LINE#         202
  C:8F9AH         LINE#         203
  C:8F9AH         LINE#         204
  C:8FB4H         LINE#         205
  C:8FBAH         LINE#         206
  C:8FC6H         LINE#         207
  C:8FD2H         LINE#         208
  C:8FEBH         LINE#         209
  C:9008H         LINE#         210
  C:900BH         LINE#         212
  -------         ENDPROC       _HEXTOSTR
  -------         PROC          _GET2121CHK2
  X:0761H         SYMBOL        pu1Num
  X:0764H         SYMBOL        u4NumLen
  -------         DO            
  X:0768H         SYMBOL        u1Temp
  X:0769H         SYMBOL        u4Data
  X:076DH         SYMBOL        i
  -------         ENDDO         
  C:8844H         LINE#         215
  C:8853H         LINE#         216
  C:8853H         LINE#         221
  C:885DH         LINE#         222
  C:888CH         LINE#         223
  C:888CH         LINE#         224
  C:88DFH         LINE#         225
  C:8908H         LINE#         226
  C:892AH         LINE#         227
  C:894AH         LINE#         228
  C:894DH         LINE#         229
  C:894DH         LINE#         230
  C:894FH         LINE#         231
  C:894FH         LINE#         232
  C:8954H         LINE#         233
BL51 BANKED LINKER/LOCATER V6.22                                                      11/23/2016  11:58:16  PAGE 71


  -------         ENDPROC       _GET2121CHK2
  -------         PROC          VOTP_INITPROCESS
  -------         DO            
  X:0001H         SYMBOL        u2Status
  D:0007H         SYMBOL        u1CHeckStatus
  X:0003H         SYMBOL        u1Datum
  D:0006H         SYMBOL        u2PPM_Value
  -------         ENDDO         
  C:459AH         LINE#         679
  C:459AH         LINE#         680
  C:459AH         LINE#         689
  C:45A5H         LINE#         692
  C:45B0H         LINE#         693
  C:45B3H         LINE#         694
  C:45B7H         LINE#         695
  C:45B7H         LINE#         696
  C:45B9H         LINE#         698
  C:45B9H         LINE#         701
  C:45BCH         LINE#         702
  C:45BCH         LINE#         703
  C:45BFH         LINE#         704
  C:45C3H         LINE#         705
  C:45C3H         LINE#         706
  C:45C8H         LINE#         708
  C:45C8H         LINE#         709
  C:45C8H         LINE#         710
  C:45E4H         LINE#         715
  C:45E7H         LINE#         716
  C:45EDH         LINE#         723
  C:45F0H         LINE#         725
  C:45F0H         LINE#         726
  C:45F0H         LINE#         728
  C:4605H         LINE#         730
  C:4605H         LINE#         731
  C:4605H         LINE#         733
  C:4605H         LINE#         735
  C:4605H         LINE#         737
  C:4605H         LINE#         741
  C:4614H         LINE#         742
  C:4614H         LINE#         743
  C:461FH         LINE#         744
  C:461FH         LINE#         745
  C:462AH         LINE#         746
  C:462AH         LINE#         747
  C:463FH         LINE#         749
  C:4643H         LINE#         750
  C:4643H         LINE#         751
  C:464BH         LINE#         752
  C:465EH         LINE#         753
  C:4660H         LINE#         755
  C:4660H         LINE#         756
  C:4679H         LINE#         757
  C:4679H         LINE#         759
  C:4680H         LINE#         760
  C:4680H         LINE#         761
  C:468DH         LINE#         762
  C:469AH         LINE#         763
BL51 BANKED LINKER/LOCATER V6.22                                                      11/23/2016  11:58:16  PAGE 72


  C:469CH         LINE#         765
  C:469CH         LINE#         766
  C:46A6H         LINE#         767
  C:46AEH         LINE#         768
  C:46AEH         LINE#         770
  C:46B2H         LINE#         771
  C:46B6H         LINE#         773
  C:46C0H         LINE#         774
  C:46C3H         LINE#         776
  C:46C3H         LINE#         777
  C:46CDH         LINE#         778
  C:46D6H         LINE#         779
  C:46D6H         LINE#         781
  C:46D9H         LINE#         782
  C:46E4H         LINE#         783
  C:46E4H         LINE#         784
  C:46EFH         LINE#         785
  C:46EFH         LINE#         786
  C:46F6H         LINE#         787
  C:46FBH         LINE#         788
  C:46FBH         LINE#         789
  C:4709H         LINE#         790
  C:4709H         LINE#         791
  C:471FH         LINE#         794
  C:4722H         LINE#         795
  C:4725H         LINE#         796
  C:4729H         LINE#         797
  C:4732H         LINE#         798
  C:473AH         LINE#         800
  C:473DH         LINE#         801
  C:4745H         LINE#         803
  C:4748H         LINE#         805
  C:4748H         LINE#         806
  C:4752H         LINE#         807
  C:4757H         LINE#         808
  C:4757H         LINE#         809
  C:475AH         LINE#         811
  C:475AH         LINE#         812
  C:4764H         LINE#         813
  C:476DH         LINE#         814
  C:476DH         LINE#         815
  C:4770H         LINE#         817
  C:4770H         LINE#         818
  C:477AH         LINE#         819
  C:477FH         LINE#         820
  C:477FH         LINE#         821
  C:4782H         LINE#         822
  C:478AH         LINE#         823
  C:478AH         LINE#         824
  C:4792H         LINE#         825
  C:4792H         LINE#         826
  C:47A0H         LINE#         827
  C:47A0H         LINE#         828
  C:47A4H         LINE#         830
  C:47B1H         LINE#         831
  C:47BAH         LINE#         835
  C:47BDH         LINE#         837
BL51 BANKED LINKER/LOCATER V6.22                                                      11/23/2016  11:58:16  PAGE 73


  C:47BDH         LINE#         838
  C:47C7H         LINE#         839
  C:47CCH         LINE#         840
  C:47CCH         LINE#         841
  C:47CFH         LINE#         843
  C:47CFH         LINE#         844
  C:47D9H         LINE#         845
  C:47DEH         LINE#         846
  C:47DEH         LINE#         847
  C:47E1H         LINE#         848
  C:47E9H         LINE#         849
  C:47E9H         LINE#         850
  C:47F1H         LINE#         851
  C:47F1H         LINE#         852
  C:47FFH         LINE#         853
  C:47FFH         LINE#         854
  C:480CH         LINE#         857
  C:4815H         LINE#         860
  C:4818H         LINE#         861
  C:481CH         LINE#         862
  C:4820H         LINE#         863
  C:483DH         LINE#         873
  C:483DH         LINE#         875
  C:483DH         LINE#         876
  C:4847H         LINE#         877
  C:484CH         LINE#         878
  C:484CH         LINE#         879
  C:484FH         LINE#         881
  C:484FH         LINE#         882
  C:4859H         LINE#         883
  C:485EH         LINE#         884
  C:485EH         LINE#         885
  C:4861H         LINE#         886
  C:486CH         LINE#         887
  C:486CH         LINE#         888
  C:4877H         LINE#         889
  C:4877H         LINE#         890
  C:487BH         LINE#         891
  C:488DH         LINE#         893
  C:4894H         LINE#         894
  C:4894H         LINE#         896
  C:489FH         LINE#         897
  C:48A3H         LINE#         922
  C:48A6H         LINE#         923
  C:48ABH         LINE#         926
  C:48C7H         LINE#         927
  C:48CAH         LINE#         928
  C:48E3H         LINE#         929
  C:48E7H         LINE#         931
  C:48EAH         LINE#         932
  C:48F4H         LINE#         933
  C:48F7H         LINE#         935
  C:48F7H         LINE#         936
  C:4901H         LINE#         937
  C:4906H         LINE#         938
  C:4906H         LINE#         939
  C:4909H         LINE#         941
BL51 BANKED LINKER/LOCATER V6.22                                                      11/23/2016  11:58:16  PAGE 74


  C:4909H         LINE#         942
  C:4913H         LINE#         943
  C:4918H         LINE#         944
  C:4918H         LINE#         945
  C:491BH         LINE#         946
  C:4922H         LINE#         947
  C:4922H         LINE#         948
  C:492BH         LINE#         949
  C:4930H         LINE#         950
  C:4933H         LINE#         951
  C:493AH         LINE#         952
  C:493AH         LINE#         954
  C:493AH         LINE#         955
  C:4943H         LINE#         956
  C:4948H         LINE#         957
  C:4948H         LINE#         958
  C:494BH         LINE#         959
  C:4952H         LINE#         960
  C:4952H         LINE#         961
  C:495CH         LINE#         962
  C:495FH         LINE#         963
  C:4966H         LINE#         964
  C:4966H         LINE#         965
  C:4970H         LINE#         966
  C:4973H         LINE#         967
  C:497AH         LINE#         968
  C:497AH         LINE#         969
  C:4984H         LINE#         971
  C:4987H         LINE#         972
  C:498EH         LINE#         973
  C:498EH         LINE#         974
  C:4998H         LINE#         976
  C:499BH         LINE#         977
  C:49A3H         LINE#         978
  C:49A3H         LINE#         979
  C:49AFH         LINE#         980
  C:49AFH         LINE#         981
  C:49B1H         LINE#         982
  C:49BEH         LINE#         983
  C:49BEH         LINE#         984
  C:49BEH         LINE#         986
  C:49BEH         LINE#         987
  C:49C8H         LINE#         988
  C:49D1H         LINE#         989
  C:49D1H         LINE#         990
  C:49D4H         LINE#         992
  C:49D4H         LINE#         993
  C:49DEH         LINE#         994
  C:49E7H         LINE#         995
  C:49E7H         LINE#         996
  C:49E9H         LINE#         997
  C:49F7H         LINE#         998
  C:49F7H         LINE#         999
  C:4A01H         LINE#         1002
  C:4A04H         LINE#         1003
  C:4A20H         LINE#         1004
  C:4A29H         LINE#         1005
BL51 BANKED LINKER/LOCATER V6.22                                                      11/23/2016  11:58:16  PAGE 75


  C:4A2CH         LINE#         1006
  C:4A38H         LINE#         1007
  C:4A38H         LINE#         1008
  C:4A42H         LINE#         1009
  C:4A4BH         LINE#         1010
  C:4A4DH         LINE#         1011
  C:4A61H         LINE#         1012
  C:4A61H         LINE#         1013
  C:4A69H         LINE#         1014
  C:4A69H         LINE#         1016
  -------         ENDPROC       VOTP_INITPROCESS
  -------         PROC          VOTP_TIMETOKEN
  -------         DO            
  X:0001H         SYMBOL        i
  X:0002H         SYMBOL        u1Buffer
  X:000AH         SYMBOL        u4Minite
  D:0007H         SYMBOL        u1TenSecond_Conuter
  X:000EH         SYMBOL        u2Cnt
  X:0010H         SYMBOL        u1Time_Dispaly
  X:0016H         SYMBOL        u1Time_BCD
  X:001CH         SYMBOL        u1Time_STR
  D:0005H         SYMBOL        j
  -------         ENDDO         
  C:5FF3H         LINE#         2150
  C:5FF3H         LINE#         2151
  C:5FF3H         LINE#         2165
  C:5FFDH         LINE#         2166
  C:5FFDH         LINE#         2167
  C:600AH         LINE#         2168
  C:6019H         LINE#         2169
  C:6028H         LINE#         2171
  C:602BH         LINE#         2172
  C:6031H         LINE#         2173
  C:6036H         LINE#         2175
  C:6042H         LINE#         2176
  C:6042H         LINE#         2177
  C:604DH         LINE#         2178
  C:6056H         LINE#         2180
  C:6058H         LINE#         2181
  C:6058H         LINE#         2182
  C:6073H         LINE#         2183
  C:6078H         LINE#         2184
  C:6093H         LINE#         2186
  C:60A6H         LINE#         2187
  C:60B9H         LINE#         2189
  C:60C4H         LINE#         2190
  C:60D3H         LINE#         2191
  C:60D6H         LINE#         2193
  C:60D9H         LINE#         2194
  C:60DCH         LINE#         2195
  C:60DFH         LINE#         2196
  C:60DFH         LINE#         2198
  C:6102H         LINE#         2204
  C:611EH         LINE#         2205
  C:611EH         LINE#         2206
  C:6121H         LINE#         2207
  C:612FH         LINE#         2208
BL51 BANKED LINKER/LOCATER V6.22                                                      11/23/2016  11:58:16  PAGE 76


  C:612FH         LINE#         2209
  C:6153H         LINE#         2210
  C:615DH         LINE#         2213
  C:6168H         LINE#         2215
  C:616FH         LINE#         2216
  C:616FH         LINE#         2217
  C:6172H         LINE#         2218
  C:6172H         LINE#         2219
  C:6174H         LINE#         2221
  C:6174H         LINE#         2223
  C:617FH         LINE#         2225
  C:6182H         LINE#         2226
  C:6188H         LINE#         2227
  C:618DH         LINE#         2228
  C:6196H         LINE#         2229
  C:6199H         LINE#         2230
  C:619DH         LINE#         2233
  C:619DH         LINE#         2234
  C:619DH         LINE#         2236
  C:619DH         LINE#         2238
  C:61A8H         LINE#         2239
  C:61A8H         LINE#         2242
  C:61ADH         LINE#         2243
  C:61B0H         LINE#         2244
  C:61B6H         LINE#         2246
  C:61B9H         LINE#         2248
  C:61B9H         LINE#         2249
  C:61B9H         LINE#         2250
  C:61BCH         LINE#         2252
  C:61DBH         LINE#         2253
  C:61DEH         LINE#         2254
  C:61DEH         LINE#         2255
  C:61ECH         LINE#         2256
  C:61ECH         LINE#         2257
  C:6210H         LINE#         2258
  C:621AH         LINE#         2260
  C:6225H         LINE#         2261
  C:6227H         LINE#         2263
  C:6227H         LINE#         2265
  C:6232H         LINE#         2267
  C:6235H         LINE#         2268
  C:623BH         LINE#         2269
  C:6240H         LINE#         2270
  C:6249H         LINE#         2271
  C:624CH         LINE#         2272
  C:624FH         LINE#         2273
  C:6253H         LINE#         2276
  C:6253H         LINE#         2277
  C:6253H         LINE#         2279
  C:625CH         LINE#         2280
  C:625CH         LINE#         2282
  C:625FH         LINE#         2283
  C:627BH         LINE#         2284
  C:6284H         LINE#         2285
  C:6284H         LINE#         2288
  C:628EH         LINE#         2289
  C:628EH         LINE#         2290
BL51 BANKED LINKER/LOCATER V6.22                                                      11/23/2016  11:58:16  PAGE 77


  C:6294H         LINE#         2291
  C:62A8H         LINE#         2292
  C:62A8H         LINE#         2293
  C:62B4H         LINE#         2294
  C:62B6H         LINE#         2296
  C:62CEH         LINE#         2297
  C:62CEH         LINE#         2300
  C:62D1H         LINE#         2301
  C:62E4H         LINE#         2302
  C:62E4H         LINE#         2304
  C:62E6H         LINE#         2305
  C:62F8H         LINE#         2306
  C:62F8H         LINE#         2308
  C:62FCH         LINE#         2310
  C:62FFH         LINE#         2311
  C:631BH         LINE#         2312
  C:6324H         LINE#         2313
  C:6324H         LINE#         2314
  C:6324H         LINE#         2316
  -------         ENDPROC       VOTP_TIMETOKEN
  -------         PROC          VOTP_INVALIDPROCESS
  C:9EAEH         LINE#         3178
  C:9EAEH         LINE#         3179
  C:9EAEH         LINE#         3202
  C:9EB9H         LINE#         3203
  C:9EC8H         LINE#         3204
  C:9ED7H         LINE#         3205
  C:9EE6H         LINE#         3206
  C:9EE6H         LINE#         3207
  C:9EE6H         LINE#         3208
  C:9EE9H         LINE#         3210
  -------         ENDPROC       VOTP_INVALIDPROCESS
  -------         ENDMOD        OTPFRAME

  -------         MODULE        ADCFRAME
  C:0000H         SYMBOL        _ICE_DUMMY_
  C:9689H         PUBLIC        ucPowerDetect
  -------         PROC          UCPOWERDETECT
  -------         DO            
  X:07ADH         SYMBOL        TmpVal
  X:07AFH         SYMBOL        Vol
  -------         ENDDO         
  C:9689H         LINE#         24
  C:9689H         LINE#         25
  C:9689H         LINE#         28
  C:968EH         LINE#         29
  C:9699H         LINE#         30
  C:96A4H         LINE#         31
  C:96A7H         LINE#         32
  C:96CCH         LINE#         33
  C:96E9H         LINE#         34
  C:96E9H         LINE#         35
  C:96ECH         LINE#         36
  C:96ECH         LINE#         38
  C:96ECH         LINE#         39
  C:96EEH         LINE#         40
  C:96EEH         LINE#         42
BL51 BANKED LINKER/LOCATER V6.22                                                      11/23/2016  11:58:16  PAGE 78


  -------         ENDPROC       UCPOWERDETECT
  -------         ENDMOD        ADCFRAME

  -------         MODULE        SM4PROCESS
  C:0000H         SYMBOL        _ICE_DUMMY_
  D:0090H         PUBLIC        SCUOSCCTRL
  C:9036H         PUBLIC        _memxor
  C:832EH         PUBLIC        _AlgSymmMacFun2
  C:9999H         PUBLIC        SHA1_TEST
  C:9D9EH         SYMBOL        _?ix1000
  C:9DAEH         SYMBOL        _?ix1001
  C:9161H         PUBLIC        SM4DEC_TEST
  C:9DBEH         SYMBOL        _?ix1002
  C:9DCEH         SYMBOL        _?ix1003
  C:9DD8H         SYMBOL        _?ix1004
  C:90C6H         PUBLIC        _Xrmemcpy
  -------         PROC          L?0037
  -------         ENDPROC       L?0037
  -------         PROC          _MEMXOR
  D:0001H         SYMBOL        pu1Output
  X:02ADH         SYMBOL        pu1Input
  X:02B0H         SYMBOL        u2Len
  -------         DO            
  X:02B2H         SYMBOL        pOutput
  X:02B5H         SYMBOL        pInput
  D:0006H         SYMBOL        u2Index
  -------         ENDDO         
  C:9036H         LINE#         9
  C:9036H         LINE#         10
  C:9036H         LINE#         15
  C:9041H         LINE#         16
  C:9056H         LINE#         17
  C:9066H         LINE#         18
  C:9066H         LINE#         19
  C:9077H         LINE#         20
  C:9077H         LINE#         21
  C:9088H         LINE#         22
  C:908AH         LINE#         24
  C:908AH         LINE#         25
  C:90BEH         LINE#         26
  C:90BEH         LINE#         27
  C:90C5H         LINE#         29
  -------         ENDPROC       _MEMXOR
  -------         PROC          _XRMEMCPY
  X:078FH         SYMBOL        pu1Output
  X:0792H         SYMBOL        pu1Input
  X:0795H         SYMBOL        u2Len
  -------         DO            
  X:0797H         SYMBOL        pOutput
  X:079AH         SYMBOL        pInput
  -------         ENDDO         
  C:90C6H         LINE#         31
  C:90D1H         LINE#         32
  C:90D1H         LINE#         36
  C:90F3H         LINE#         37
  C:910DH         LINE#         38
  C:9136H         LINE#         39
BL51 BANKED LINKER/LOCATER V6.22                                                      11/23/2016  11:58:16  PAGE 79


  C:9136H         LINE#         40
  C:915EH         LINE#         41
  C:9160H         LINE#         43
  -------         ENDPROC       _XRMEMCPY
  -------         PROC          _ALGSYMMMACFUN2
  X:0089H         SYMBOL        pu1Data
  X:008CH         SYMBOL        pu2DataSize
  X:008FH         SYMBOL        pu1KeyVal
  X:0092H         SYMBOL        pu1IV
  -------         DO            
  X:0095H         SYMBOL        u1BlockSize
  X:0096H         SYMBOL        u2DataSize
  -------         ENDDO         
  C:832EH         LINE#         46
  C:8339H         LINE#         47
  C:8339H         LINE#         48
  C:8339H         LINE#         51
  C:8344H         LINE#         52
  C:835CH         LINE#         55
  C:836AH         LINE#         56
  C:8370H         LINE#         58
  C:8384H         LINE#         59
  C:8384H         LINE#         60
  C:839EH         LINE#         63
  C:839EH         LINE#         65
  C:83D7H         LINE#         66
  C:83D7H         LINE#         69
  C:83E7H         LINE#         70
  C:83F4H         LINE#         71
  C:83F7H         LINE#         74
  C:83F7H         LINE#         77
  C:83F7H         LINE#         79
  C:8405H         LINE#         80
  C:8405H         LINE#         82
  C:8427H         LINE#         83
  C:8444H         LINE#         86
  C:8444H         LINE#         87
  C:847DH         LINE#         88
  C:847DH         LINE#         90
  C:847DH         LINE#         92
  C:8496H         LINE#         95
  -------         ENDPROC       _ALGSYMMMACFUN2
  -------         PROC          SM4DEC_TEST
  -------         DO            
  D:0007H         SYMBOL        i
  X:0043H         SYMBOL        g_u1Key
  X:0053H         SYMBOL        pu1MacKey
  X:0063H         SYMBOL        u1Result
  -------         ENDDO         
  C:9161H         LINE#         154
  C:9161H         LINE#         155
  C:9161H         LINE#         157
  C:9174H         LINE#         158
  C:9187H         LINE#         159
  C:919AH         LINE#         160
  C:91A3H         LINE#         161
  C:91D1H         LINE#         163
BL51 BANKED LINKER/LOCATER V6.22                                                      11/23/2016  11:58:16  PAGE 80


  C:91D3H         LINE#         164
  C:91D3H         LINE#         165
  C:91EDH         LINE#         166
  C:91EDH         LINE#         167
  C:91EDH         LINE#         168
  C:91EDH         LINE#         169
  C:91F2H         LINE#         171
  C:91F6H         LINE#         172
  C:91F6H         LINE#         173
  C:91F9H         LINE#         174
  C:91F9H         LINE#         176
  C:91F9H         LINE#         177
  C:91FBH         LINE#         178
  C:91FBH         LINE#         179
  -------         ENDPROC       SM4DEC_TEST
  -------         PROC          SHA1_TEST
  -------         DO            
  X:0043H         SYMBOL        pu1In
  X:004DH         SYMBOL        u1Result
  D:0002H         SYMBOL        u2Len
  X:0061H         SYMBOL        pu1O
  D:0007H         SYMBOL        i
  -------         ENDDO         
  C:9999H         LINE#         181
  C:9999H         LINE#         182
  C:9999H         LINE#         183
  C:99ACH         LINE#         184
  C:99BFH         LINE#         185
  C:99C3H         LINE#         189
  C:99CEH         LINE#         191
  C:99D0H         LINE#         192
  C:99D0H         LINE#         193
  C:99EAH         LINE#         194
  C:99EAH         LINE#         195
  C:99EAH         LINE#         196
  C:99EAH         LINE#         197
  C:99EFH         LINE#         199
  C:99F3H         LINE#         200
  C:99F3H         LINE#         201
  C:99F6H         LINE#         202
  C:99F6H         LINE#         204
  C:99F6H         LINE#         205
  C:99F8H         LINE#         206
  C:99F8H         LINE#         208
  -------         ENDPROC       SHA1_TEST
  -------         ENDMOD        SM4PROCESS

  -------         MODULE        UARTFRAME
  C:0000H         SYMBOL        _ICE_DUMMY_
  X:06F1H         PUBLIC        g_UART_BUF_LEN
  X:06F2H         PUBLIC        g_UART_COM_BUF
  -------         ENDMOD        UARTFRAME

  -------         MODULE        PUTCHAR
  C:0000H         SYMBOL        _ICE_DUMMY_
  C:000EH         PUBLIC        _putchar
  -------         PROC          _PUTCHAR
BL51 BANKED LINKER/LOCATER V6.22                                                      11/23/2016  11:58:16  PAGE 81


  D:0007H         SYMBOL        x
  C:000EH         LINE#         33
  C:000EH         LINE#         34
  C:000EH         LINE#         35
  -------         ENDPROC       _PUTCHAR
  -------         ENDMOD        PUTCHAR

  -------         MODULE        DEBUG
  C:0000H         SYMBOL        _ICE_DUMMY_
  C:96EFH         PUBLIC        _ucSysClkChange
  D:0090H         PUBLIC        SCUOSCCTRL
  C:8D74H         PUBLIC        _vDelay
  -------         PROC          _VDELAY
  D:0006H         SYMBOL        ucCount
  -------         DO            
  D:0004H         SYMBOL        i
  -------         ENDDO         
  C:8D74H         LINE#         4
  C:8D74H         LINE#         5
  C:8D74H         LINE#         7
  C:8D81H         LINE#         8
  C:8D81H         LINE#         9
  C:8D82H         LINE#         10
  C:8D83H         LINE#         11
  C:8D84H         LINE#         12
  C:8D85H         LINE#         13
  C:8D86H         LINE#         14
  C:8D87H         LINE#         15
  C:8D88H         LINE#         16
  C:8D89H         LINE#         17
  C:8D8AH         LINE#         18
  C:8D8BH         LINE#         20
  C:8D8CH         LINE#         21
  C:8D8DH         LINE#         22
  C:8D8EH         LINE#         23
  C:8D8FH         LINE#         24
  C:8D90H         LINE#         25
  C:8D91H         LINE#         26
  C:8D92H         LINE#         27
  C:8D93H         LINE#         28
  C:8D94H         LINE#         29
  C:8D95H         LINE#         31
  C:8D96H         LINE#         32
  C:8D97H         LINE#         33
  C:8D98H         LINE#         34
  C:8D99H         LINE#         35
  C:8D9AH         LINE#         36
  C:8D9BH         LINE#         37
  C:8D9CH         LINE#         38
  C:8D9DH         LINE#         39
  C:8D9EH         LINE#         40
  C:8D9FH         LINE#         42
  C:8DA0H         LINE#         43
  C:8DA1H         LINE#         44
  C:8DA2H         LINE#         45
  C:8DA3H         LINE#         46
  C:8DA4H         LINE#         47
BL51 BANKED LINKER/LOCATER V6.22                                                      11/23/2016  11:58:16  PAGE 82


  C:8DA5H         LINE#         48
  C:8DA6H         LINE#         49
  C:8DA7H         LINE#         50
  C:8DA8H         LINE#         51
  C:8DA9H         LINE#         53
  C:8DAAH         LINE#         54
  C:8DABH         LINE#         55
  C:8DACH         LINE#         56
  C:8DADH         LINE#         57
  C:8DAEH         LINE#         58
  C:8DAFH         LINE#         59
  C:8DB0H         LINE#         60
  C:8DB1H         LINE#         61
  C:8DB2H         LINE#         62
  C:8DB3H         LINE#         64
  C:8DB4H         LINE#         65
  C:8DB5H         LINE#         66
  C:8DB6H         LINE#         67
  C:8DB7H         LINE#         68
  C:8DB8H         LINE#         69
  C:8DB9H         LINE#         70
  C:8DBAH         LINE#         71
  C:8DBBH         LINE#         72
  C:8DBCH         LINE#         73
  C:8DBDH         LINE#         75
  C:8DBEH         LINE#         76
  C:8DBFH         LINE#         77
  C:8DC0H         LINE#         78
  C:8DC1H         LINE#         79
  C:8DC2H         LINE#         80
  C:8DC3H         LINE#         81
  C:8DC4H         LINE#         82
  C:8DC5H         LINE#         83
  C:8DC6H         LINE#         84
  C:8DC7H         LINE#         86
  C:8DC8H         LINE#         87
  C:8DC9H         LINE#         88
  C:8DCAH         LINE#         89
  C:8DCBH         LINE#         90
  C:8DCCH         LINE#         91
  C:8DCDH         LINE#         92
  C:8DCEH         LINE#         93
  C:8DCFH         LINE#         94
  C:8DD0H         LINE#         95
  C:8DD1H         LINE#         97
  C:8DD2H         LINE#         98
  C:8DD3H         LINE#         99
  C:8DD4H         LINE#         100
  C:8DD5H         LINE#         101
  C:8DD6H         LINE#         102
  C:8DD7H         LINE#         103
  C:8DD8H         LINE#         104
  C:8DD9H         LINE#         105
  C:8DDAH         LINE#         106
  C:8DDBH         LINE#         108
  C:8DDCH         LINE#         109
  C:8DDDH         LINE#         110
BL51 BANKED LINKER/LOCATER V6.22                                                      11/23/2016  11:58:16  PAGE 83


  C:8DDEH         LINE#         111
  C:8DDFH         LINE#         112
  C:8DE0H         LINE#         113
  C:8DE1H         LINE#         114
  C:8DE2H         LINE#         115
  C:8DE3H         LINE#         116
  C:8DE4H         LINE#         117
  C:8DE5H         LINE#         119
  C:8DE6H         LINE#         120
  C:8DE7H         LINE#         121
  C:8DE8H         LINE#         122
  C:8DE9H         LINE#         123
  C:8DEAH         LINE#         124
  C:8DEBH         LINE#         125
  C:8DECH         LINE#         126
  C:8DEDH         LINE#         127
  C:8DEEH         LINE#         128
  C:8DEFH         LINE#         130
  C:8DF0H         LINE#         131
  C:8DF1H         LINE#         132
  C:8DF2H         LINE#         133
  C:8DF3H         LINE#         134
  C:8DF4H         LINE#         135
  C:8DF5H         LINE#         136
  C:8DF6H         LINE#         137
  C:8DF7H         LINE#         138
  C:8DF8H         LINE#         139
  C:8DF9H         LINE#         141
  C:8DFAH         LINE#         142
  C:8DFBH         LINE#         143
  C:8DFCH         LINE#         144
  C:8DFDH         LINE#         145
  C:8DFEH         LINE#         146
  C:8DFFH         LINE#         147
  C:8E00H         LINE#         148
  C:8E01H         LINE#         149
  C:8E02H         LINE#         150
  C:8E03H         LINE#         152
  C:8E04H         LINE#         153
  C:8E05H         LINE#         154
  C:8E06H         LINE#         155
  C:8E07H         LINE#         156
  C:8E08H         LINE#         157
  C:8E09H         LINE#         158
  C:8E0AH         LINE#         159
  C:8E0BH         LINE#         160
  C:8E0CH         LINE#         161
  C:8E0DH         LINE#         163
  C:8E0EH         LINE#         164
  C:8E0FH         LINE#         165
  C:8E10H         LINE#         166
  C:8E11H         LINE#         167
  C:8E12H         LINE#         168
  C:8E13H         LINE#         169
  C:8E14H         LINE#         170
  C:8E15H         LINE#         171
  C:8E16H         LINE#         172
BL51 BANKED LINKER/LOCATER V6.22                                                      11/23/2016  11:58:16  PAGE 84


  C:8E17H         LINE#         174
  C:8E18H         LINE#         175
  C:8E19H         LINE#         176
  C:8E1AH         LINE#         177
  C:8E1BH         LINE#         178
  C:8E1CH         LINE#         179
  C:8E1DH         LINE#         180
  C:8E1EH         LINE#         181
  C:8E1FH         LINE#         182
  C:8E20H         LINE#         183
  C:8E21H         LINE#         185
  C:8E29H         LINE#         186
  -------         ENDPROC       _VDELAY
  -------         PROC          _UCSYSCLKCHANGE
  D:0007H         SYMBOL        CLK
  C:96EFH         LINE#         188
  C:96EFH         LINE#         189
  C:96EFH         LINE#         190
  C:96FFH         LINE#         191
  C:96FFH         LINE#         192
  C:96FFH         LINE#         193
  C:9718H         LINE#         195
  C:971AH         LINE#         196
  C:971AH         LINE#         197
  C:9733H         LINE#         199
  C:9735H         LINE#         200
  C:9735H         LINE#         202
  C:9743H         LINE#         203
  C:9745H         LINE#         204
  C:9745H         LINE#         206
  C:9750H         LINE#         208
  C:9750H         LINE#         209
  C:9750H         LINE#         210
  C:9750H         LINE#         211
  C:9750H         LINE#         213
  C:9752H         LINE#         214
  -------         ENDPROC       _UCSYSCLKCHANGE
  -------         ENDMOD        DEBUG

  -------         MODULE        CRC
  C:91FCH         SEGMENT       ?PR?_U16CRCCOMPUTE?CRC
  X:07B3H         SEGMENT       ?XD?_U16CRCCOMPUTE?CRC
  C:A28DH         SEGMENT       ?PR?_UCENDIANCHANGE?CRC
  C:91FCH         PUBLIC        _U16CRCCOMPUTE
  C:A28DH         PUBLIC        _UCENDIANCHANGE
  C:9213H         SYMBOL        ?C0001
  C:927BH         SYMBOL        ?C0002
  C:9274H         SYMBOL        ?C0003
  C:9235H         SYMBOL        ?C0004
  C:9250H         SYMBOL        ?C0007
  C:925DH         SYMBOL        ?C0008
  C:9283H         SYMBOL        ?C0009
  C:A2A0H         SYMBOL        ?C0010
  C:926EH         SYMBOL        ?C0011
  C:9279H         SYMBOL        ?C0012
  X:07B3H         SYMBOL        ?_U16CRCCOMPUTE?BYTE
  B:00D0H.6       SYMBOL        AC
BL51 BANKED LINKER/LOCATER V6.22                                                      11/23/2016  11:58:16  PAGE 85


  D:00E0H         SYMBOL        ACC
  X:07B3H         SYMBOL        ADDR?040
  D:00F0H         SYMBOL        B
  N:0000H         SYMBOL        CRC
  X:07B7H         SYMBOL        CRC?042
  B:00D0H.7       SYMBOL        CY
  D:0083H         SYMBOL        DPH
  D:0085H         SYMBOL        DPH2
  D:0082H         SYMBOL        DPL
  D:0084H         SYMBOL        DPL2
  D:0086H         SYMBOL        DPS
  B:00A8H.7       SYMBOL        EA
  C:A294H         SYMBOL        ENDIANLOOP
  B:00A8H.4       SYMBOL        ES
  B:00A8H.1       SYMBOL        ET0
  B:00A8H.3       SYMBOL        ET1
  B:00A8H.0       SYMBOL        EX0
  B:00A8H.2       SYMBOL        EX1
  B:00D0H.5       SYMBOL        F0
  D:00A8H         SYMBOL        IE
  B:0088H.1       SYMBOL        IE0
  B:0088H.3       SYMBOL        IE1
  D:00C0H         SYMBOL        IOMCR
  D:00C6H         SYMBOL        IOMP0DIN
  D:00C1H         SYMBOL        IOMP0DIR
  D:00C7H         SYMBOL        IOMP0DOUT
  D:00C4H         SYMBOL        IOMP0INTS1
  D:00C5H         SYMBOL        IOMP0INTS2
  D:00C8H         SYMBOL        IOMP0ISR
  D:00C3H         SYMBOL        IOMP0PD
  D:00C2H         SYMBOL        IOMP0PU
  D:00CEH         SYMBOL        IOMP1DIN
  D:00C9H         SYMBOL        IOMP1DIR
  D:00CFH         SYMBOL        IOMP1DOUT
  D:00CCH         SYMBOL        IOMP1INTS1
  D:00CDH         SYMBOL        IOMP1INTS2
  D:00BCH         SYMBOL        IOMP1ISR
  D:00CBH         SYMBOL        IOMP1PD
  D:00CAH         SYMBOL        IOMP1PU
  D:00B8H         SYMBOL        IP
  B:0088H.0       SYMBOL        IT0
  B:0088H.2       SYMBOL        IT1
  D:00A1H         SYMBOL        KBCCR
  D:00A2H         SYMBOL        KBCDAT1
  D:00A3H         SYMBOL        KBCDAT2
  D:00A0H         SYMBOL        KBCSTAT
  X:07B5H         SYMBOL        LEN?041
  B:00D0H.2       SYMBOL        OV
  B:00D0H.0       SYMBOL        P
  D:0087H         SYMBOL        PCON
  B:00B8H.4       SYMBOL        PS
  D:00D0H         SYMBOL        PSW
  B:00B8H.1       SYMBOL        PT0
  B:00B8H.3       SYMBOL        PT1
  B:00B8H.0       SYMBOL        PX0
  B:00B8H.2       SYMBOL        PX1
  D:00EFH         SYMBOL        RNGDATA
BL51 BANKED LINKER/LOCATER V6.22                                                      11/23/2016  11:58:16  PAGE 86


  D:00EEH         SYMBOL        RNGINT
  D:00EDH         SYMBOL        RNGMODE
  D:00ECH         SYMBOL        RNGSTART
  B:00D0H.3       SYMBOL        RS0
  B:00D0H.4       SYMBOL        RS1
  D:009CH         SYMBOL        SCUCTRL
  D:0098H         SYMBOL        SCUIE0
  D:0099H         SYMBOL        SCUIE1
  D:009AH         SYMBOL        SCUIS0
  D:009BH         SYMBOL        SCUIS1
  D:00F9H         SYMBOL        SCULCDSWEN
  D:0091H         SYMBOL        SCUMCG
  D:0090H         SYMBOL        SCUOSCCTRL
  D:009EH         SYMBOL        SCUPC
  D:0092H         SYMBOL        SCUPM
  D:0093H         SYMBOL        SCUPMP
  D:00FAH         SYMBOL        SCURAMSWEN
  D:009DH         SYMBOL        SCURNGC
  D:0094H         SYMBOL        SCUSO
  D:00F8H         SYMBOL        SCUTMRCG
  D:0096H         SYMBOL        SCUWE0
  D:0097H         SYMBOL        SCUWE1
  D:0095H         SYMBOL        SCUWT
  D:00F4H         SYMBOL        SM3CON
  D:00F5H         SYMBOL        SM3INT
  D:0081H         SYMBOL        SP
  D:00D9H         SYMBOL        TBCADJH
  D:00D8H         SYMBOL        TBCADJL
  D:00DEH         SYMBOL        TBCDR0
  D:00DDH         SYMBOL        TBCDR1
  D:00DCH         SYMBOL        TBCDR2
  D:00DBH         SYMBOL        TBCDR3
  D:00DFH         SYMBOL        TBCINTSTS
  D:00DAH         SYMBOL        TBCSTART
  D:0088H         SYMBOL        TCON
  B:0088H.5       SYMBOL        TF0
  B:0088H.7       SYMBOL        TF1
  D:00B0H         SYMBOL        TM0CDATA
  D:00B3H         SYMBOL        TM0CON
  D:00B1H         SYMBOL        TM1CDATA
  D:00B4H         SYMBOL        TM1CON
  D:00B5H         SYMBOL        TM1INTSTS
  D:00B2H         SYMBOL        TM1MOD
  D:00A0H         SYMBOL        TM2CDATA
  D:00A3H         SYMBOL        TM2CON
  D:00A5H         SYMBOL        TM2INTSTS
  D:00A2H         SYMBOL        TM2MOD
  D:00A1H         SYMBOL        TM3CDATA
  D:00A4H         SYMBOL        TM3CON
  D:00D4H         SYMBOL        UARTBUF
  D:00D5H         SYMBOL        UARTCON
  D:00D6H         SYMBOL        UARTSTAT
  D:00E4H         SYMBOL        WDTCON
  D:00E6H         SYMBOL        WDTINTSTS
  D:00E5H         SYMBOL        WDTMOD
  C:91FCH         LINE#         154
  C:91FFH         LINE#         155
BL51 BANKED LINKER/LOCATER V6.22                                                      11/23/2016  11:58:16  PAGE 87


  C:9200H         LINE#         156
  C:9201H         LINE#         157
  C:9202H         LINE#         158
  C:9203H         LINE#         159
  C:9204H         LINE#         160
  C:9205H         LINE#         161
  C:9206H         LINE#         162
  C:9207H         LINE#         163
  C:9208H         LINE#         164
  C:9209H         LINE#         165
  C:920AH         LINE#         166
  C:920BH         LINE#         167
  C:920CH         LINE#         168
  C:920DH         LINE#         169
  C:920EH         LINE#         170
  C:920FH         LINE#         171
  C:9210H         LINE#         179
  C:9211H         LINE#         180
  C:9212H         LINE#         181
  C:9213H         LINE#         183
  C:9214H         LINE#         184
  C:9217H         LINE#         185
  C:9218H         LINE#         186
  C:9219H         LINE#         187
  C:921CH         LINE#         188
  C:921DH         LINE#         189
  C:921EH         LINE#         190
  C:9220H         LINE#         195
  C:9223H         LINE#         196
  C:9224H         LINE#         197
  C:9225H         LINE#         198
  C:9226H         LINE#         199
  C:9229H         LINE#         200
  C:922AH         LINE#         201
  C:922BH         LINE#         202
  C:922DH         LINE#         203
  C:922FH         LINE#         204
  C:9230H         LINE#         205
  C:9231H         LINE#         207
  C:9232H         LINE#         211
  C:9233H         LINE#         212
  C:9234H         LINE#         213
  C:9235H         LINE#         219
  C:9238H         LINE#         220
  C:9239H         LINE#         221
  C:923AH         LINE#         222
  C:923DH         LINE#         223
  C:923EH         LINE#         224
  C:923FH         LINE#         225
  C:9241H         LINE#         226
  C:9242H         LINE#         227
  C:9245H         LINE#         228
  C:9246H         LINE#         229
  C:9247H         LINE#         230
  C:9249H         LINE#         231
  C:924AH         LINE#         232
  C:924BH         LINE#         233
BL51 BANKED LINKER/LOCATER V6.22                                                      11/23/2016  11:58:16  PAGE 88


  C:924DH         LINE#         234
  C:924EH         LINE#         235
  C:9250H         LINE#         237
  C:9253H         LINE#         238
  C:9254H         LINE#         239
  C:9256H         LINE#         240
  C:9257H         LINE#         241
  C:925AH         LINE#         242
  C:925BH         LINE#         243
  C:925CH         LINE#         244
  C:925DH         LINE#         246
  C:9260H         LINE#         247
  C:9261H         LINE#         248
  C:9262H         LINE#         249
  C:9263H         LINE#         250
  C:9264H         LINE#         251
  C:9265H         LINE#         254
  C:9266H         LINE#         255
  C:9268H         LINE#         256
  C:9269H         LINE#         259
  C:926AH         LINE#         260
  C:926DH         LINE#         261
  C:926EH         LINE#         263
  C:926FH         LINE#         264
  C:9271H         LINE#         265
  C:9272H         LINE#         266
  C:9274H         LINE#         270
  C:9275H         LINE#         271
  C:9278H         LINE#         272
  C:9279H         LINE#         274
  C:927BH         LINE#         279
  C:927EH         LINE#         280
  C:927FH         LINE#         281
  C:9280H         LINE#         282
  C:9281H         LINE#         283
  C:9282H         LINE#         284
  C:9283H         LINE#         289
  C:A28DH         LINE#         316
  C:A28EH         LINE#         318
  C:A290H         LINE#         320
  C:A292H         LINE#         322
  C:A293H         LINE#         324
  C:A294H         LINE#         328
  C:A295H         LINE#         330
  C:A297H         LINE#         332
  C:A298H         LINE#         334
  C:A29AH         LINE#         336
  C:A29CH         LINE#         340
  C:A29EH         LINE#         342
  C:A29FH         LINE#         346
  C:A2A0H         LINE#         350
  -------         ENDMOD        CRC

  -------         MODULE        SM4
  C:0000H         SYMBOL        _ICE_DUMMY_
  C:9A63H         SYMBOL        _convert
  X:04FAH         SYMBOL        _rk_
BL51 BANKED LINKER/LOCATER V6.22                                                      11/23/2016  11:58:16  PAGE 89


  C:A143H         PUBLIC        _SM4_Version
  C:000AH         PUBLIC        SM4_Close
  C:6D65H         PUBLIC        _SM4_Crypto
  C:3895H         SYMBOL        sbox
  C:3815H         SYMBOL        sm4_ck
  C:3805H         SYMBOL        sm4_fk
  C:6327H         PUBLIC        _SM4_Init
  C:1968H         PUBLIC        __sm4_decrypt
  C:3C95H         SYMBOL        abc1
  C:3D95H         SYMBOL        abc2
  C:3A95H         SYMBOL        cba2
  C:3E95H         SYMBOL        abc6
  C:3995H         SYMBOL        cba6
  C:3B95H         SYMBOL        abc7
  C:2E49H         PUBLIC        __sm4_encrypt
  C:9A5FH         SYMBOL        L?0054
  -------         PROC          L?0053
  -------         ENDPROC       L?0053
  C:9A5FH         SYMBOL        L?0054
  -------         PROC          _CONVERT
  D:0001H         SYMBOL        a
  D:0004H         SYMBOL        len
  -------         DO            
  X:00DCH         SYMBOL        s
  -------         ENDDO         
  C:9A63H         LINE#         275
  C:9A63H         LINE#         276
  C:9A63H         LINE#         277
  C:9A67H         LINE#         278
  C:9A67H         LINE#         280
  C:9A7FH         LINE#         281
  C:9A9DH         LINE#         282
  C:9AAEH         LINE#         283
  -------         ENDPROC       _CONVERT
  -------         PROC          _SM4_INIT
  D:0001H         SYMBOL        key
  -------         DO            
  D:0005H         SYMBOL        i
  -------         DO            
  X:0098H         SYMBOL        t
  X:009CH         SYMBOL        u
  X:00A0H         SYMBOL        s
  -------         ENDDO         
  -------         ENDDO         
  C:6327H         LINE#         298
  C:6327H         LINE#         299
  C:6327H         LINE#         303
  C:6334H         LINE#         304
  C:633DH         LINE#         306
  C:633FH         LINE#         307
  C:633FH         LINE#         308
  C:635CH         LINE#         309
  C:6361H         LINE#         312
  C:636CH         LINE#         313
  C:636CH         LINE#         318
  C:639CH         LINE#         319
  C:63CCH         LINE#         320
BL51 BANKED LINKER/LOCATER V6.22                                                      11/23/2016  11:58:16  PAGE 90


  C:63FCH         LINE#         321
  C:642CH         LINE#         323
  C:6438H         LINE#         324
  C:6442H         LINE#         325
  C:644CH         LINE#         326
  C:6457H         LINE#         330
  C:646FH         LINE#         331
  C:6483H         LINE#         332
  C:6497H         LINE#         333
  C:64A7H         LINE#         335
  C:64B7H         LINE#         336
  C:64C5H         LINE#         337
  C:64D3H         LINE#         338
  C:64D9H         LINE#         341
  C:64DDH         LINE#         342
  C:64F3H         LINE#         343
  C:6507H         LINE#         344
  C:651BH         LINE#         345
  C:6530H         LINE#         348
  C:653BH         LINE#         349
  C:653FH         LINE#         350
  C:654DH         LINE#         351
  C:655CH         LINE#         354
  C:657CH         LINE#         355
  C:659CH         LINE#         356
  C:65BCH         LINE#         357
  C:65D5H         LINE#         359
  C:65DCH         LINE#         361
  -------         ENDPROC       _SM4_INIT
  -------         PROC          L?0055
  -------         ENDPROC       L?0055
  -------         PROC          __SM4_ENCRYPT
  X:00CCH         SYMBOL        x
  X:00CFH         SYMBOL        xin
  -------         DO            
  X:00D2H         SYMBOL        i
  -------         DO            
  X:00D3H         SYMBOL        t
  X:00D7H         SYMBOL        u
  X:00DBH         SYMBOL        s
  -------         ENDDO         
  -------         ENDDO         
  C:2E49H         LINE#         376
  C:2E54H         LINE#         377
  C:2E54H         LINE#         382
  C:2E81H         LINE#         383
  C:2EA0H         LINE#         384
  C:2EA6H         LINE#         387
  C:2EB8H         LINE#         388
  C:2EB8H         LINE#         391
  C:2EEEH         LINE#         392
  C:2F15H         LINE#         393
  C:2F3FH         LINE#         394
  C:2F66H         LINE#         396
  C:2F72H         LINE#         397
  C:2F7CH         LINE#         398
  C:2F86H         LINE#         399
BL51 BANKED LINKER/LOCATER V6.22                                                      11/23/2016  11:58:16  PAGE 91


  C:2F90H         LINE#         401
  C:2F9FH         LINE#         402
  C:2FAAH         LINE#         403
  C:2FB5H         LINE#         404
  C:2FB9H         LINE#         406
  C:2FC8H         LINE#         407
  C:2FD4H         LINE#         408
  C:2FE2H         LINE#         409
  C:2FEEH         LINE#         411
  C:2FF7H         LINE#         412
  C:300AH         LINE#         413
  C:3020H         LINE#         414
  C:3036H         LINE#         415
  C:304DH         LINE#         417
  C:3050H         LINE#         418
  C:305EH         LINE#         419
  C:306CH         LINE#         420
  C:307AH         LINE#         422
  C:3086H         LINE#         423
  C:30A2H         LINE#         424
  C:30BEH         LINE#         425
  C:30DAH         LINE#         429
  C:310DH         LINE#         430
  C:3134H         LINE#         431
  C:315EH         LINE#         432
  C:3185H         LINE#         434
  C:3191H         LINE#         435
  C:319BH         LINE#         436
  C:31A5H         LINE#         437
  C:31AFH         LINE#         439
  C:31BEH         LINE#         440
  C:31C9H         LINE#         441
  C:31D4H         LINE#         442
  C:31D8H         LINE#         444
  C:31E7H         LINE#         445
  C:31F3H         LINE#         446
  C:3201H         LINE#         447
  C:320DH         LINE#         449
  C:3216H         LINE#         450
  C:3229H         LINE#         451
  C:323FH         LINE#         452
  C:3255H         LINE#         453
  C:326CH         LINE#         455
  C:326FH         LINE#         456
  C:327DH         LINE#         457
  C:328BH         LINE#         458
  C:3299H         LINE#         460
  C:32ACH         LINE#         461
  C:32C8H         LINE#         462
  C:32E4H         LINE#         463
  C:3300H         LINE#         467
  C:3333H         LINE#         468
  C:335AH         LINE#         469
  C:3384H         LINE#         470
  C:33ABH         LINE#         472
  C:33B7H         LINE#         473
  C:33C1H         LINE#         474
BL51 BANKED LINKER/LOCATER V6.22                                                      11/23/2016  11:58:16  PAGE 92


  C:33CBH         LINE#         475
  C:33D5H         LINE#         477
  C:33E4H         LINE#         478
  C:33EFH         LINE#         479
  C:33FAH         LINE#         480
  C:33FEH         LINE#         482
  C:340DH         LINE#         483
  C:3419H         LINE#         484
  C:3427H         LINE#         485
  C:3433H         LINE#         487
  C:343CH         LINE#         488
  C:344FH         LINE#         489
  C:3465H         LINE#         490
  C:347BH         LINE#         491
  C:3492H         LINE#         493
  C:3495H         LINE#         494
  C:34A3H         LINE#         495
  C:34B1H         LINE#         496
  C:34BFH         LINE#         498
  C:34D2H         LINE#         499
  C:34EEH         LINE#         500
  C:350AH         LINE#         501
  C:3526H         LINE#         505
  C:3559H         LINE#         506
  C:3580H         LINE#         507
  C:35AAH         LINE#         508
  C:35D1H         LINE#         510
  C:35DDH         LINE#         511
  C:35E7H         LINE#         512
  C:35F1H         LINE#         513
  C:35FBH         LINE#         515
  C:360AH         LINE#         516
  C:3615H         LINE#         517
  C:3620H         LINE#         518
  C:3625H         LINE#         520
  C:362FH         LINE#         521
  C:363BH         LINE#         522
  C:3649H         LINE#         523
  C:364DH         LINE#         525
  C:3656H         LINE#         526
  C:3669H         LINE#         527
  C:367FH         LINE#         528
  C:3695H         LINE#         529
  C:36ACH         LINE#         531
  C:36AFH         LINE#         532
  C:36BDH         LINE#         533
  C:36CBH         LINE#         534
  C:36DAH         LINE#         536
  C:36EDH         LINE#         537
  C:3709H         LINE#         538
  C:3725H         LINE#         539
  C:373CH         LINE#         541
  C:3746H         LINE#         544
  C:374BH         LINE#         545
  C:374BH         LINE#         546
  C:37C0H         LINE#         547
  C:37F6H         LINE#         548
BL51 BANKED LINKER/LOCATER V6.22                                                      11/23/2016  11:58:16  PAGE 93


  C:3804H         LINE#         549
  -------         ENDPROC       __SM4_ENCRYPT
  -------         PROC          L?0052
  -------         ENDPROC       L?0052
  -------         PROC          __SM4_DECRYPT
  X:00CCH         SYMBOL        c
  X:00CFH         SYMBOL        cin
  -------         DO            
  X:00D2H         SYMBOL        i
  -------         DO            
  X:00D3H         SYMBOL        t
  X:00D7H         SYMBOL        u
  X:00DBH         SYMBOL        s
  -------         ENDDO         
  -------         ENDDO         
  C:1968H         LINE#         564
  C:1973H         LINE#         565
  C:1973H         LINE#         569
  C:19A0H         LINE#         570
  C:19BFH         LINE#         571
  C:19C5H         LINE#         574
  C:19D6H         LINE#         575
  C:19D6H         LINE#         579
  C:1A16H         LINE#         580
  C:1A3DH         LINE#         581
  C:1A64H         LINE#         582
  C:1A8BH         LINE#         584
  C:1A97H         LINE#         585
  C:1AA1H         LINE#         586
  C:1AABH         LINE#         587
  C:1AB5H         LINE#         589
  C:1AC4H         LINE#         590
  C:1ACFH         LINE#         591
  C:1ADAH         LINE#         592
  C:1ADEH         LINE#         594
  C:1AECH         LINE#         595
  C:1AF8H         LINE#         596
  C:1B06H         LINE#         597
  C:1B12H         LINE#         599
  C:1B1BH         LINE#         600
  C:1B2EH         LINE#         601
  C:1B44H         LINE#         602
  C:1B5AH         LINE#         603
  C:1B70H         LINE#         606
  C:1B7DH         LINE#         607
  C:1B8BH         LINE#         608
  C:1B99H         LINE#         609
  C:1BA7H         LINE#         611
  C:1BB3H         LINE#         612
  C:1BCFH         LINE#         613
  C:1BEBH         LINE#         614
  C:1C07H         LINE#         617
  C:1C44H         LINE#         618
  C:1C79H         LINE#         619
  C:1CAEH         LINE#         620
  C:1CE3H         LINE#         622
  C:1CEFH         LINE#         623
BL51 BANKED LINKER/LOCATER V6.22                                                      11/23/2016  11:58:16  PAGE 94


  C:1CF9H         LINE#         624
  C:1D03H         LINE#         625
  C:1D0DH         LINE#         627
  C:1D1CH         LINE#         628
  C:1D27H         LINE#         629
  C:1D32H         LINE#         630
  C:1D36H         LINE#         632
  C:1D44H         LINE#         633
  C:1D50H         LINE#         634
  C:1D5EH         LINE#         635
  C:1D6AH         LINE#         637
  C:1D73H         LINE#         638
  C:1D86H         LINE#         639
  C:1D9CH         LINE#         640
  C:1DB2H         LINE#         641
  C:1DC8H         LINE#         643
  C:1DD5H         LINE#         644
  C:1DE3H         LINE#         645
  C:1DF1H         LINE#         646
  C:1DFFH         LINE#         648
  C:1E12H         LINE#         649
  C:1E2EH         LINE#         650
  C:1E4AH         LINE#         651
  C:1E66H         LINE#         656
  C:1EA3H         LINE#         657
  C:1ED8H         LINE#         658
  C:1F0DH         LINE#         659
  C:1F42H         LINE#         661
  C:1F4EH         LINE#         662
  C:1F58H         LINE#         663
  C:1F62H         LINE#         664
  C:1F6CH         LINE#         666
  C:1F7BH         LINE#         667
  C:1F86H         LINE#         668
  C:1F91H         LINE#         669
  C:1F95H         LINE#         671
  C:1FA3H         LINE#         672
  C:1FAFH         LINE#         673
  C:1FBDH         LINE#         674
  C:1FC9H         LINE#         676
  C:1FD2H         LINE#         677
  C:1FE5H         LINE#         678
  C:1FFBH         LINE#         679
  C:2011H         LINE#         680
  C:2027H         LINE#         682
  C:2034H         LINE#         683
  C:2042H         LINE#         684
  C:2050H         LINE#         685
  C:205EH         LINE#         687
  C:2071H         LINE#         688
  C:208DH         LINE#         689
  C:20A9H         LINE#         690
  C:20C5H         LINE#         694
  C:2102H         LINE#         695
  C:2137H         LINE#         696
  C:216CH         LINE#         697
  C:21A1H         LINE#         699
BL51 BANKED LINKER/LOCATER V6.22                                                      11/23/2016  11:58:16  PAGE 95


  C:21ADH         LINE#         700
  C:21B7H         LINE#         701
  C:21C1H         LINE#         702
  C:21CBH         LINE#         704
  C:21DAH         LINE#         705
  C:21E5H         LINE#         706
  C:21F0H         LINE#         707
  C:21F5H         LINE#         709
  C:21FEH         LINE#         710
  C:220AH         LINE#         711
  C:2218H         LINE#         712
  C:221CH         LINE#         714
  C:2225H         LINE#         715
  C:2238H         LINE#         716
  C:224EH         LINE#         717
  C:2264H         LINE#         718
  C:227BH         LINE#         720
  C:2284H         LINE#         721
  C:2292H         LINE#         722
  C:22A0H         LINE#         723
  C:22AFH         LINE#         725
  C:22C2H         LINE#         726
  C:22DEH         LINE#         727
  C:22FAH         LINE#         728
  C:2311H         LINE#         730
  C:231BH         LINE#         733
  C:2320H         LINE#         734
  C:2320H         LINE#         735
  C:2395H         LINE#         736
  C:23CBH         LINE#         737
  C:23D9H         LINE#         738
  -------         ENDPROC       __SM4_DECRYPT
  -------         PROC          _SM4_CRYPTO
  X:0098H         SYMBOL        in
  D:0004H         SYMBOL        inByteLen
  X:009FH         SYMBOL        En_De
  X:00A0H         SYMBOL        mode
  X:00A1H         SYMBOL        iv
  X:00A4H         SYMBOL        out
  -------         DO            
  X:00A7H         SYMBOL        i
  X:00A8H         SYMBOL        ByteLen
  X:00ACH         SYMBOL        tmp_iv
  X:00BCH         SYMBOL        CBC_in
  -------         ENDDO         
  C:6D65H         LINE#         742
  C:6D70H         LINE#         745
  C:6D70H         LINE#         748
  C:6D76H         LINE#         754
  C:6D83H         LINE#         755
  C:6D86H         LINE#         757
  C:6D8CH         LINE#         758
  C:6D8CH         LINE#         759
  C:6DA8H         LINE#         760
  C:6DA8H         LINE#         761
  C:6DB6H         LINE#         762
  C:6DC9H         LINE#         763
BL51 BANKED LINKER/LOCATER V6.22                                                      11/23/2016  11:58:16  PAGE 96


  C:6DECH         LINE#         764
  C:6E00H         LINE#         765
  C:6E03H         LINE#         766
  C:6E03H         LINE#         769
  C:6E03H         LINE#         770
  C:6E1BH         LINE#         771
  C:6E24H         LINE#         772
  C:6E24H         LINE#         773
  C:6E40H         LINE#         774
  C:6E40H         LINE#         775
  C:6E45H         LINE#         776
  C:6E7EH         LINE#         777
  C:6E8DH         LINE#         778
  C:6EA5H         LINE#         779
  C:6EC8H         LINE#         780
  C:6EDCH         LINE#         781
  C:6EDFH         LINE#         782
  C:6EDFH         LINE#         784
  C:6EDFH         LINE#         785
  C:6EFBH         LINE#         786
  C:6EFBH         LINE#         787
  C:6F13H         LINE#         788
  C:6F19H         LINE#         789
  C:6F1EH         LINE#         790
  C:6F4FH         LINE#         791
  C:6F62H         LINE#         792
  C:6F85H         LINE#         793
  C:6F99H         LINE#         794
  C:6F9CH         LINE#         795
  C:6F9CH         LINE#         796
  C:6F9CH         LINE#         797
  C:6F9EH         LINE#         798
  -------         ENDPROC       _SM4_CRYPTO
  -------         PROC          SM4_CLOSE
  C:000AH         LINE#         800
  -------         ENDPROC       SM4_CLOSE
  -------         PROC          _SM4_VERSION
  D:0001H         SYMBOL        version
  C:A143H         LINE#         802
  C:A143H         LINE#         803
  C:A143H         LINE#         804
  C:A148H         LINE#         805
  C:A151H         LINE#         806
  C:A158H         LINE#         807
  -------         ENDPROC       _SM4_VERSION
  -------         ENDMOD        SM4

  -------         MODULE        BIGAPIASM
  C:A097H         SEGMENT       ?PR?_BIGAPIASM
  C:A0AEH         PUBLIC        _CLEAR_XDATA_BUFFER
  C:A097H         PUBLIC        _MOVE_XDATA_BUFFER
  D:0086H         SYMBOL        AUXR1
  C:A0B7H         SYMBOL        CLEAR_XDATA_BUFFER_1
  D:0083H         SYMBOL        DPH
  D:0085H         SYMBOL        DPH2
  D:0082H         SYMBOL        DPL
  D:0084H         SYMBOL        DPL2
BL51 BANKED LINKER/LOCATER V6.22                                                      11/23/2016  11:58:16  PAGE 97


  C:A0A3H         SYMBOL        MOVE_XDATA_BUFFER_1
  C:A097H         LINE#         19
  C:A099H         LINE#         20
  C:A09BH         LINE#         21
  C:A09DH         LINE#         22
  C:A09FH         LINE#         23
  C:A0A2H         LINE#         24
  C:A0A3H         LINE#         26
  C:A0A4H         LINE#         27
  C:A0A5H         LINE#         28
  C:A0A7H         LINE#         29
  C:A0A8H         LINE#         30
  C:A0A9H         LINE#         31
  C:A0ABH         LINE#         32
  C:A0ADH         LINE#         33
  C:A0AEH         LINE#         40
  C:A0B0H         LINE#         41
  C:A0B2H         LINE#         42
  C:A0B3H         LINE#         43
  C:A0B6H         LINE#         44
  C:A0B7H         LINE#         46
  C:A0B8H         LINE#         47
  C:A0B9H         LINE#         48
  C:A0BBH         LINE#         49
  -------         ENDMOD        BIGAPIASM

  -------         MODULE        ?C?FPADD
  C:23E1H         PUBLIC        ?C?FPADD
  C:23DDH         PUBLIC        ?C?FPSUB
  -------         ENDMOD        ?C?FPADD

  -------         MODULE        ?C?FPMUL
  C:24D2H         PUBLIC        ?C?FPMUL
  -------         ENDMOD        ?C?FPMUL

  -------         MODULE        ?C?FPDIV
  C:25DBH         PUBLIC        ?C?FPDIV
  -------         ENDMOD        ?C?FPDIV

  -------         MODULE        ?C?FPCMP
  C:267AH         PUBLIC        ?C?FPCMP
  C:2678H         PUBLIC        ?C?FPCMP3
  -------         ENDMOD        ?C?FPCMP

  -------         MODULE        ?C?FPNEG
  C:26E5H         PUBLIC        ?C?FPNEG
  -------         ENDMOD        ?C?FPNEG

  -------         MODULE        ?C?FCAST
  C:2700H         PUBLIC        ?C?FCASTC
  C:26FBH         PUBLIC        ?C?FCASTI
  C:26F6H         PUBLIC        ?C?FCASTL
  -------         ENDMOD        ?C?FCAST

  -------         MODULE        ?C?CASTF
  C:2734H         PUBLIC        ?C?CASTF
  -------         ENDMOD        ?C?CASTF
BL51 BANKED LINKER/LOCATER V6.22                                                      11/23/2016  11:58:16  PAGE 98



  -------         MODULE        FABS
  C:A354H         PUBLIC        _FABS
  -------         ENDMOD        FABS

  -------         MODULE        ?C?COPY
  C:2885H         PUBLIC        ?C?COPY
  -------         ENDMOD        ?C?COPY

  -------         MODULE        ?C?CLDPTR
  C:28ABH         PUBLIC        ?C?CLDPTR
  -------         ENDMOD        ?C?CLDPTR

  -------         MODULE        ?C?CLDOPTR
  C:28C4H         PUBLIC        ?C?CLDOPTR
  -------         ENDMOD        ?C?CLDOPTR

  -------         MODULE        ?C?CSTPTR
  C:28F1H         PUBLIC        ?C?CSTPTR
  -------         ENDMOD        ?C?CSTPTR

  -------         MODULE        ?C?CSTOPTR
  C:2903H         PUBLIC        ?C?CSTOPTR
  -------         ENDMOD        ?C?CSTOPTR

  -------         MODULE        ?C?IMUL
  C:2925H         PUBLIC        ?C?IMUL
  -------         ENDMOD        ?C?IMUL

  -------         MODULE        ?C?UIDIV
  C:2937H         PUBLIC        ?C?UIDIV
  -------         ENDMOD        ?C?UIDIV

  -------         MODULE        ?C?IILDX
  C:298CH         PUBLIC        ?C?IILDX
  -------         ENDMOD        ?C?IILDX

  -------         MODULE        ?C?ILDIX
  C:29A2H         PUBLIC        ?C?ILDIX
  -------         ENDMOD        ?C?ILDIX

  -------         MODULE        ?C?ILDPTR
  C:29B8H         PUBLIC        ?C?ILDPTR
  -------         ENDMOD        ?C?ILDPTR

  -------         MODULE        ?C?ISTPTR
  C:29E3H         PUBLIC        ?C?ISTPTR
  -------         ENDMOD        ?C?ISTPTR

  -------         MODULE        ?C?LMUL
  C:2A02H         PUBLIC        ?C?LMUL
  -------         ENDMOD        ?C?LMUL

  -------         MODULE        ?C?ULDIV
  C:2A8DH         PUBLIC        ?C?ULDIV
  -------         ENDMOD        ?C?ULDIV

BL51 BANKED LINKER/LOCATER V6.22                                                      11/23/2016  11:58:16  PAGE 99


  -------         MODULE        ?C?LNOT
  C:2B1FH         PUBLIC        ?C?LNOT
  -------         ENDMOD        ?C?LNOT

  -------         MODULE        ?C?LNEG
  C:2B2CH         PUBLIC        ?C?LNEG
  -------         ENDMOD        ?C?LNEG

  -------         MODULE        ?C?ULCMP
  C:2B3AH         PUBLIC        ?C?ULCMP
  -------         ENDMOD        ?C?ULCMP

  -------         MODULE        ?C?ULSHR
  C:2B4BH         PUBLIC        ?C?ULSHR
  -------         ENDMOD        ?C?ULSHR

  -------         MODULE        ?C?LSHL
  C:2B5EH         PUBLIC        ?C?LSHL
  -------         ENDMOD        ?C?LSHL

  -------         MODULE        ?C?LLDPTR
  C:2B71H         PUBLIC        ?C?LLDPTR
  -------         ENDMOD        ?C?LLDPTR

  -------         MODULE        ?C?LSTPTR
  C:2B91H         PUBLIC        ?C?LSTPTR
  -------         ENDMOD        ?C?LSTPTR

  -------         MODULE        ?C?LLDIDATA
  C:2BABH         PUBLIC        ?C?LLDIDATA
  -------         ENDMOD        ?C?LLDIDATA

  -------         MODULE        ?C?LLDCODE
  C:2BB7H         PUBLIC        ?C?LLDCODE
  -------         ENDMOD        ?C?LLDCODE

  -------         MODULE        ?C?LLDIDATA0
  C:2BC7H         PUBLIC        ?C?LLDIDATA0
  -------         ENDMOD        ?C?LLDIDATA0

  -------         MODULE        ?C?LSTIDATA
  C:2BD4H         PUBLIC        ?C?LSTIDATA
  -------         ENDMOD        ?C?LSTIDATA

  -------         MODULE        ?C?LSTXDATA
  C:2BE0H         PUBLIC        ?C?LSTXDATA
  -------         ENDMOD        ?C?LSTXDATA

  -------         MODULE        ?C?LSTKIDATA
  C:2BECH         PUBLIC        ?C?LSTKIDATA
  -------         ENDMOD        ?C?LSTKIDATA

  -------         MODULE        ?C?LSTKXDATA
  C:2C05H         PUBLIC        ?C?LSTKXDATA
  -------         ENDMOD        ?C?LSTKXDATA

  -------         MODULE        ?C?OFFXADD
BL51 BANKED LINKER/LOCATER V6.22                                                      11/23/2016  11:58:16  PAGE 100


  C:2C36H         PUBLIC        ?C?OFFXADD
  -------         ENDMOD        ?C?OFFXADD

  -------         MODULE        ABS
  C:A379H         PUBLIC        _ABS
  -------         ENDMOD        ABS

  -------         MODULE        ?C?MEMCMP
  C:2DC8H         PUBLIC        ?C?MEMCMP
  -------         ENDMOD        ?C?MEMCMP

  -------         MODULE        ?C?MEMSET
  C:2DECH         PUBLIC        ?C?MEMSET
  -------         ENDMOD        ?C?MEMSET

  -------         MODULE        ?C?LLDXDATA
  C:2E18H         PUBLIC        ?C?LLDXDATA
  -------         ENDMOD        ?C?LLDXDATA

  -------         MODULE        ?C?LLDPDATA
  C:2E24H         PUBLIC        ?C?LLDPDATA
  -------         ENDMOD        ?C?LLDPDATA

  -------         MODULE        ?C?LSTPDATA
  C:2E30H         PUBLIC        ?C?LSTPDATA
  -------         ENDMOD        ?C?LSTPDATA

Program Size: data=165.0 xdata=1996 code=41897
LINK/LOCATE RUN COMPLETE.  0 WARNING(S),  0 ERROR(S)
